Component: ARM Compiler 5.06 (build 20) Tool: armlink [4d35a3]

==============================================================================

Section Cross References

    main.o(i.DeviceNameFromID) refers to _printf_pad.o(.text) for _printf_pre_padding
    main.o(i.DeviceNameFromID) refers to _printf_percent.o(.ARM.Collect$$_printf_percent$$00000000) for _printf_percent
    main.o(i.DeviceNameFromID) refers to _printf_x.o(.ARM.Collect$$_printf_percent$$0000000C) for _printf_x
    main.o(i.DeviceNameFromID) refers to _printf_hex_int.o(.text) for _printf_longlong_hex
    main.o(i.DeviceNameFromID) refers to strncpy.o(.text) for strncpy
    main.o(i.DeviceNameFromID) refers to ds2401.o(i.ds2401_initAndRead) for ds2401_initAndRead
    main.o(i.DeviceNameFromID) refers to noretval__2sprintf.o(.text) for __2sprintf
    main.o(i.DeviceNameFromID) refers to ds2401.o(.data) for ds2401_id
    main.o(i.advertising_init) refers to rt_memclr.o(.text) for __aeabi_memclr4
    main.o(i.advertising_init) refers to ble_advdata.o(i.ble_advdata_set) for ble_advdata_set
    main.o(i.advertising_init) refers to main.o(i.app_error_handler) for app_error_handler
    main.o(i.advertising_init) refers to ble_advertising.o(i.ble_advertising_init) for ble_advertising_init
    main.o(i.advertising_init) refers to main.o(.constdata) for .constdata
    main.o(i.advertising_init) refers to main.o(.bss) for m_AD7746
    main.o(i.advertising_init) refers to main.o(i.on_adv_evt) for on_adv_evt
    main.o(i.advertising_start) refers to ble_advertising.o(i.ble_advertising_start) for ble_advertising_start
    main.o(i.advertising_start) refers to main.o(i.app_error_handler) for app_error_handler
    main.o(i.app_error_handler) refers to ble_debug_assert_handler.o(i.ble_debug_assert_handler) for ble_debug_assert_handler
    main.o(i.app_on_adv_timeout) refers to bsp.o(i.bsp_indication_set) for bsp_indication_set
    main.o(i.app_on_adv_timeout) refers to main.o(i.app_error_handler) for app_error_handler
    main.o(i.app_on_connect) refers to bsp.o(i.bsp_indication_set) for bsp_indication_set
    main.o(i.app_on_connect) refers to main.o(i.app_error_handler) for app_error_handler
    main.o(i.app_on_connect) refers to main.o(i.nrf_gpio_pin_set) for nrf_gpio_pin_set
    main.o(i.app_on_connect) refers to nrf_delay.o(i.nrf_delay_ms) for nrf_delay_ms
    main.o(i.app_on_connect) refers to main.o(i.nrf_gpio_pin_clear) for nrf_gpio_pin_clear
    main.o(i.app_on_disconnect) refers to main.o(i.app_error_handler) for app_error_handler
    main.o(i.application_timers_start) refers to app_timer.o(i.app_timer_start) for app_timer_start
    main.o(i.application_timers_start) refers to main.o(i.app_error_handler) for app_error_handler
    main.o(i.application_timers_start) refers to main.o(.data) for m_cap_timer_id
    main.o(i.assert_nrf_callback) refers to main.o(i.app_error_handler) for app_error_handler
    main.o(i.ble_evt_dispatch) refers to device_manager_peripheral.o(i.dm_ble_evt_handler) for dm_ble_evt_handler
    main.o(i.ble_evt_dispatch) refers to ble_conn_params.o(i.ble_conn_params_on_ble_evt) for ble_conn_params_on_ble_evt
    main.o(i.ble_evt_dispatch) refers to ble_ad7746.o(i.ble_AD7746_on_ble_evt) for ble_AD7746_on_ble_evt
    main.o(i.ble_evt_dispatch) refers to main.o(i.on_ble_evt) for on_ble_evt
    main.o(i.ble_evt_dispatch) refers to ble_advertising.o(i.ble_advertising_on_ble_evt) for ble_advertising_on_ble_evt
    main.o(i.ble_evt_dispatch) refers to main.o(.bss) for m_AD7746
    main.o(i.ble_stack_init) refers to softdevice_handler.o(i.softdevice_handler_init) for softdevice_handler_init
    main.o(i.ble_stack_init) refers to main.o(i.app_error_handler) for app_error_handler
    main.o(i.ble_stack_init) refers to softdevice_handler.o(i.softdevice_ble_evt_handler_set) for softdevice_ble_evt_handler_set
    main.o(i.ble_stack_init) refers to softdevice_handler.o(i.softdevice_sys_evt_handler_set) for softdevice_sys_evt_handler_set
    main.o(i.ble_stack_init) refers to main.o(.bss) for BLE_EVT_BUFFER
    main.o(i.ble_stack_init) refers to main.o(i.ble_evt_dispatch) for ble_evt_dispatch
    main.o(i.ble_stack_init) refers to main.o(i.sys_evt_dispatch) for sys_evt_dispatch
    main.o(i.blockSend) refers to main.o(.bss) for m_AD7746
    main.o(i.blockSend) refers to main.o(.data) for finishedADC
    main.o(i.button_event_handler) refers to main.o(i.nrf_gpio_pin_set) for nrf_gpio_pin_set
    main.o(i.button_event_handler) refers to nrf_delay.o(i.nrf_delay_ms) for nrf_delay_ms
    main.o(i.button_event_handler) refers to main.o(i.nrf_gpio_pin_clear) for nrf_gpio_pin_clear
    main.o(i.conn_params_error_handler) refers to main.o(i.app_error_handler) for app_error_handler
    main.o(i.conn_params_init) refers to rt_memclr.o(.text) for __aeabi_memclr4
    main.o(i.conn_params_init) refers to ble_conn_params.o(i.ble_conn_params_init) for ble_conn_params_init
    main.o(i.conn_params_init) refers to main.o(i.app_error_handler) for app_error_handler
    main.o(i.conn_params_init) refers to main.o(i.on_conn_params_evt) for on_conn_params_evt
    main.o(i.conn_params_init) refers to main.o(i.conn_params_error_handler) for conn_params_error_handler
    main.o(i.device_manager_evt_handler) refers to main.o(i.app_error_handler) for app_error_handler
    main.o(i.device_manager_init) refers to pstorage.o(i.pstorage_init) for pstorage_init
    main.o(i.device_manager_init) refers to main.o(i.app_error_handler) for app_error_handler
    main.o(i.device_manager_init) refers to bsp.o(i.bsp_button_is_pressed) for bsp_button_is_pressed
    main.o(i.device_manager_init) refers to device_manager_peripheral.o(i.dm_init) for dm_init
    main.o(i.device_manager_init) refers to rt_memclr.o(.text) for __aeabi_memclr
    main.o(i.device_manager_init) refers to device_manager_peripheral.o(i.dm_register) for dm_register
    main.o(i.device_manager_init) refers to main.o(i.device_manager_evt_handler) for device_manager_evt_handler
    main.o(i.device_manager_init) refers to main.o(.data) for m_app_handle
    main.o(i.gap_params_init) refers to main.o(i.DeviceNameFromID) for DeviceNameFromID
    main.o(i.gap_params_init) refers to main.o(i.app_error_handler) for app_error_handler
    main.o(i.main) refers to main.o(i.ble_stack_init) for ble_stack_init
    main.o(i.main) refers to main.o(i.scheduler_init) for scheduler_init
    main.o(i.main) refers to main.o(i.device_manager_init) for device_manager_init
    main.o(i.main) refers to main.o(i.timers_init) for timers_init
    main.o(i.main) refers to main.o(i.gap_params_init) for gap_params_init
    main.o(i.main) refers to main.o(i.services_init) for services_init
    main.o(i.main) refers to main.o(i.advertising_init) for advertising_init
    main.o(i.main) refers to main.o(i.someother_module_init) for someother_module_init
    main.o(i.main) refers to main.o(i.conn_params_init) for conn_params_init
    main.o(i.main) refers to main.o(i.application_timers_start) for application_timers_start
    main.o(i.main) refers to main.o(i.advertising_start) for advertising_start
    main.o(i.main) refers to app_scheduler.o(i.app_sched_execute) for app_sched_execute
    main.o(i.main) refers to main.o(i.app_error_handler) for app_error_handler
    main.o(i.nus_data_handler) refers to app_uart.o(i.app_uart_put) for app_uart_put
    main.o(i.on_adv_evt) refers to bsp.o(i.bsp_indication_set) for bsp_indication_set
    main.o(i.on_adv_evt) refers to main.o(i.app_error_handler) for app_error_handler
    main.o(i.on_adv_evt) refers to bsp.o(i.bsp_buttons_enable) for bsp_buttons_enable
    main.o(i.on_ble_evt) refers to main.o(i.app_on_connect) for app_on_connect
    main.o(i.on_ble_evt) refers to main.o(i.app_on_disconnect) for app_on_disconnect
    main.o(i.on_ble_evt) refers to main.o(i.app_on_adv_timeout) for app_on_adv_timeout
    main.o(i.on_ble_evt) refers to main.o(i.resumeSendData) for resumeSendData
    main.o(i.on_ble_evt) refers to main.o(.data) for m_conn_handle
    main.o(i.on_conn_params_evt) refers to main.o(i.app_error_handler) for app_error_handler
    main.o(i.on_conn_params_evt) refers to main.o(.data) for m_conn_handle
    main.o(i.resumeSendData) refers to ble_ad7746.o(i.ble_AD7746_send_temp_notify) for ble_AD7746_send_temp_notify
    main.o(i.resumeSendData) refers to main.o(i.app_error_handler) for app_error_handler
    main.o(i.resumeSendData) refers to main.o(.data) for lastSendIndex
    main.o(i.resumeSendData) refers to main.o(.bss) for dataToSend
    main.o(i.scheduler_init) refers to app_scheduler.o(i.app_sched_init) for app_sched_init
    main.o(i.scheduler_init) refers to main.o(i.app_error_handler) for app_error_handler
    main.o(i.scheduler_init) refers to main.o(.bss) for APP_SCHED_BUF
    main.o(i.services_init) refers to ble_ad7746.o(i.ble_AD7746_init) for ble_AD7746_init
    main.o(i.services_init) refers to main.o(i.app_error_handler) for app_error_handler
    main.o(i.services_init) refers to main.o(i.ad7746_on_write_config_callback) for ad7746_on_write_config_callback
    main.o(i.services_init) refers to main.o(.bss) for m_AD7746
    main.o(i.someother_module_init) refers to app_gpiote.o(i.app_gpiote_init) for app_gpiote_init
    main.o(i.someother_module_init) refers to main.o(i.app_error_handler) for app_error_handler
    main.o(i.someother_module_init) refers to bsp.o(i.bsp_init) for bsp_init
    main.o(i.someother_module_init) refers to communication.o(i.I2C_Init) for I2C_Init
    main.o(i.someother_module_init) refers to mpu_9150.o(i.initMPU9150) for initMPU9150
    main.o(i.someother_module_init) refers to a2035h.o(i.initA2035H) for initA2035H
    main.o(i.someother_module_init) refers to mpl3115.o(i.MPL3115A2_init) for MPL3115A2_init
    main.o(i.someother_module_init) refers to mpl3115.o(i.MPL3115A2_getAltitude) for MPL3115A2_getAltitude
    main.o(i.someother_module_init) refers to ltc2943.o(i.ltc294x_init) for ltc294x_init
    main.o(i.someother_module_init) refers to ltc2943.o(i.ltc294x_get_current) for ltc294x_get_current
    main.o(i.someother_module_init) refers to ltc2943.o(i.ltc294x_get_temperature) for ltc294x_get_temperature
    main.o(i.someother_module_init) refers to ltc2943.o(i.ltc294x_get_voltage) for ltc294x_get_voltage
    main.o(i.someother_module_init) refers to ltc2943.o(i.ltc294x_get_charge_counter) for ltc294x_get_charge_counter
    main.o(i.someother_module_init) refers to main.o(.bss) for app_gpiote_buf
    main.o(i.someother_module_init) refers to main.o(i.button_event_handler) for button_event_handler
    main.o(i.someother_module_init) refers to main.o(.data) for finishedADC
    main.o(i.sys_evt_dispatch) refers to pstorage.o(i.pstorage_sys_event_handler) for pstorage_sys_event_handler
    main.o(i.sys_evt_dispatch) refers to ble_advertising.o(i.ble_advertising_on_sys_evt) for ble_advertising_on_sys_evt
    main.o(i.tempmeasure_timer_handler) refers to mpu_9150.o(i.readMagFloatUT) for readMagFloatUT
    main.o(i.tempmeasure_timer_handler) refers to ble_ad7746.o(i.ble_AD7746_send_temp_notify) for ble_AD7746_send_temp_notify
    main.o(i.tempmeasure_timer_handler) refers to main.o(i.app_error_handler) for app_error_handler
    main.o(i.tempmeasure_timer_handler) refers to main.o(.bss) for m_AD7746
    main.o(i.timers_init) refers to app_timer.o(i.app_timer_init) for app_timer_init
    main.o(i.timers_init) refers to main.o(i.app_error_handler) for app_error_handler
    main.o(i.timers_init) refers to app_timer.o(i.app_timer_create) for app_timer_create
    main.o(i.timers_init) refers to main.o(.bss) for APP_TIMER_BUF
    main.o(i.timers_init) refers to main.o(i.capmeasure_timer_handler) for capmeasure_timer_handler
    main.o(i.timers_init) refers to main.o(.data) for m_cap_timer_id
    main.o(i.timers_init) refers to main.o(i.tempmeasure_timer_handler) for tempmeasure_timer_handler
    ble_ad7746.o(i.ble_AD7746_init) refers to ble_ad7746.o(i.config_char_add) for config_char_add
    ble_ad7746.o(i.ble_AD7746_init) refers to ble_ad7746.o(i.cap_char_add) for cap_char_add
    ble_ad7746.o(i.ble_AD7746_init) refers to ble_ad7746.o(i.temp_char_add) for temp_char_add
    ble_ad7746.o(i.ble_AD7746_init) refers to ble_ad7746.o(.data) for AD7746_UUID_BASE
    ble_ad7746.o(i.ble_AD7746_on_ble_evt) refers to ble_ad7746.o(i.on_connect) for on_connect
    ble_ad7746.o(i.ble_AD7746_on_ble_evt) refers to ble_ad7746.o(i.on_disconnect) for on_disconnect
    ble_ad7746.o(i.ble_AD7746_on_ble_evt) refers to ble_ad7746.o(i.on_write) for on_write
    ble_ad7746.o(i.ble_AD7746_send_temp_notify) refers to main.o(i.app_error_handler) for app_error_handler
    ble_ad7746.o(i.cap_char_add) refers to rt_memclr.o(.text) for __aeabi_memclr4
    ble_ad7746.o(i.config_char_add) refers to rt_memclr.o(.text) for __aeabi_memclr4
    ble_ad7746.o(i.temp_char_add) refers to rt_memclr.o(.text) for __aeabi_memclr4
    ad7746.o(i.AD7746_GetCapData) refers to ad7746.o(i.AD7746_Read) for AD7746_Read
    ad7746.o(i.AD7746_GetVTData) refers to ad7746.o(i.AD7746_Read) for AD7746_Read
    ad7746.o(i.AD7746_Init) refers to communication.o(i.I2C_Init) for I2C_Init
    ad7746.o(i.AD7746_Init) refers to ad7746.o(i.AD7746_Reset) for AD7746_Reset
    ad7746.o(i.AD7746_Init) refers to ad7746.o(i.AD7746_Read) for AD7746_Read
    ad7746.o(i.AD7746_Init) refers to main.o(i.assert_nrf_callback) for assert_nrf_callback
    ad7746.o(i.AD7746_Init) refers to ad7746.o(i.AD7746_Write) for AD7746_Write
    ad7746.o(i.AD7746_Read) refers to communication.o(i.I2C_Write) for I2C_Write
    ad7746.o(i.AD7746_Read) refers to communication.o(i.I2C_Read) for I2C_Read
    ad7746.o(i.AD7746_Reset) refers to communication.o(i.I2C_Write) for I2C_Write
    ad7746.o(i.AD7746_Write) refers to communication.o(i.I2C_Write) for I2C_Write
    ad7746.o(i.AD7746_getConfig) refers to ad7746.o(i.AD7746_Read) for AD7746_Read
    ad7746.o(i.AD7746_getConfig) refers to main.o(i.assert_nrf_callback) for assert_nrf_callback
    communication.o(i.I2C_Init) refers to twi_hw_master.o(i.twi_master_init) for twi_master_init
    communication.o(i.I2C_Read) refers to twi_hw_master.o(i.twi_master_transfer) for twi_master_transfer
    communication.o(i.I2C_Write) refers to twi_hw_master.o(i.twi_master_transfer) for twi_master_transfer
    sensoradc.o(i.ADC_IRQHandler) refers to dflti.o(.text) for __aeabi_ui2d
    sensoradc.o(i.ADC_IRQHandler) refers to fflti.o(.text) for __aeabi_i2f
    sensoradc.o(i.ADC_IRQHandler) refers to fmul.o(x$fpl$fmul) for __aeabi_fmul
    sensoradc.o(i.ADC_IRQHandler) refers to f2d.o(.text) for __aeabi_f2d
    sensoradc.o(i.ADC_IRQHandler) refers to ddiv.o(.text) for __aeabi_ddiv
    sensoradc.o(i.ADC_IRQHandler) refers to daddsub.o(.text) for __aeabi_dadd
    sensoradc.o(i.ADC_IRQHandler) refers to d2f.o(.text) for __aeabi_d2f
    sensoradc.o(i.ADC_IRQHandler) refers to aeabi_sdiv.o(.text) for __aeabi_uidivmod
    sensoradc.o(i.ADC_IRQHandler) refers to sensoradc.o(.data) for currStoreIndex
    sensoradc.o(i.ADC_IRQHandler) refers to sensoradc.o(.bss) for adcData
    sensoradc.o(i.sensorADC_config) refers to nrf_adc.o(i.nrf_adc_configure) for nrf_adc_configure
    sensoradc.o(i.sensorADC_config) refers to sensoradc.o(.constdata) for .constdata
    sensoradc.o(i.sensorADC_config) refers to sensoradc.o(.data) for currentMeasureInput
    sensoradc.o(i.sensorADC_singleMeasure) refers to nrf_adc.o(i.nrf_adc_convert_single) for nrf_adc_convert_single
    sensoradc.o(i.sensorADC_singleMeasure) refers to fflti.o(.text) for __aeabi_i2f
    sensoradc.o(i.sensorADC_singleMeasure) refers to sensoradc.o(.data) for currentMeasureInput
    sensoradc.o(i.sensorADC_startSequenceMeasure) refers to sensoradc.o(i.NVIC_SetPriority) for NVIC_SetPriority
    sensoradc.o(i.sensorADC_startSequenceMeasure) refers to sensoradc.o(.data) for maxSeqSamples
    sensoradc.o(i.sensorADC_startSequenceMeasure) refers to sensoradc.o(.bss) for adcData
    ds2401.o(i.ds2401_initAndRead) refers to rt_memclr.o(.text) for __aeabi_memclr
    ds2401.o(i.ds2401_initAndRead) refers to ds2401.o(i.reset) for reset
    ds2401.o(i.ds2401_initAndRead) refers to ds2401.o(i.write_byte) for write_byte
    ds2401.o(i.ds2401_initAndRead) refers to ds2401.o(i.read_byte) for read_byte
    ds2401.o(i.ds2401_initAndRead) refers to ds2401.o(i.crc8_add) for crc8_add
    ds2401.o(i.ds2401_initAndRead) refers to ds2401.o(.data) for ds2401_id
    ds2401.o(i.read_byte) refers to ds2401.o(.emb_text) for __asm___8_ds2401_c_2a9f9079__nrf_delay_us
    ds2401.o(i.reset) refers to ds2401.o(.emb_text) for __asm___8_ds2401_c_2a9f9079__nrf_delay_us
    ds2401.o(i.write_byte) refers to ds2401.o(.emb_text) for __asm___8_ds2401_c_2a9f9079__nrf_delay_us
    mpu_9150.o(i.MPU9150SelfTest) refers to mpu_9150.o(i.MPU9150_writeByte) for MPU9150_writeByte
    mpu_9150.o(i.MPU9150SelfTest) refers to mpu_9150.o(i.wait) for wait
    mpu_9150.o(i.MPU9150SelfTest) refers to mpu_9150.o(i.MPU9150_readByte) for MPU9150_readByte
    mpu_9150.o(i.MPU9150SelfTest) refers to fflti.o(.text) for __aeabi_ui2f
    mpu_9150.o(i.MPU9150SelfTest) refers to faddsub.o(x$fpl$fsub) for __aeabi_fsub
    mpu_9150.o(i.MPU9150SelfTest) refers to fdiv.o(.text) for __aeabi_fdiv
    mpu_9150.o(i.MPU9150SelfTest) refers to f2d.o(.text) for __aeabi_f2d
    mpu_9150.o(i.MPU9150SelfTest) refers to pow.o(i.pow) for pow
    mpu_9150.o(i.MPU9150SelfTest) refers to dmul.o(.text) for __aeabi_dmul
    mpu_9150.o(i.MPU9150SelfTest) refers to d2f.o(.text) for __aeabi_d2f
    mpu_9150.o(i.MPU9150SelfTest) refers to fmul.o(x$fpl$fmul) for __aeabi_fmul
    mpu_9150.o(i.MPU9150SelfTest) refers to faddsub.o(x$fpl$fadd) for __aeabi_fadd
    mpu_9150.o(i.MPU9150_readByte) refers to mpu_9150.o(i.MPU9150_readBytes) for MPU9150_readBytes
    mpu_9150.o(i.MPU9150_readByte_) refers to mpu_9150.o(i.MPU9150_readBytes_) for MPU9150_readBytes_
    mpu_9150.o(i.MPU9150_readBytes) refers to mpu_9150.o(i.MPU9150_readBytes_) for MPU9150_readBytes_
    mpu_9150.o(i.MPU9150_readBytes_) refers to communication.o(i.I2C_Write) for I2C_Write
    mpu_9150.o(i.MPU9150_readBytes_) refers to communication.o(i.I2C_Read) for I2C_Read
    mpu_9150.o(i.MPU9150_writeByte) refers to mpu_9150.o(i.MPU9150_writeByte_) for MPU9150_writeByte_
    mpu_9150.o(i.MPU9150_writeByte_) refers to communication.o(i.I2C_Write) for I2C_Write
    mpu_9150.o(i.MadgwickQuaternionUpdate) refers to fmul.o(x$fpl$fmul) for __aeabi_fmul
    mpu_9150.o(i.MadgwickQuaternionUpdate) refers to faddsub.o(x$fpl$fadd) for __aeabi_fadd
    mpu_9150.o(i.MadgwickQuaternionUpdate) refers to f2d.o(.text) for __aeabi_f2d
    mpu_9150.o(i.MadgwickQuaternionUpdate) refers to sqrt.o(i.sqrt) for sqrt
    mpu_9150.o(i.MadgwickQuaternionUpdate) refers to d2f.o(.text) for __aeabi_d2f
    mpu_9150.o(i.MadgwickQuaternionUpdate) refers to feqf.o(x$fpl$feqf) for __aeabi_cfcmpeq
    mpu_9150.o(i.MadgwickQuaternionUpdate) refers to fdiv.o(.text) for __aeabi_fdiv
    mpu_9150.o(i.MadgwickQuaternionUpdate) refers to faddsub.o(x$fpl$fsub) for __aeabi_fsub
    mpu_9150.o(i.MadgwickQuaternionUpdate) refers to mpu_9150.o(.data) for q
    mpu_9150.o(i.MadgwickQuaternionUpdate) refers to faddsub.o(x$fpl$frsb) for __aeabi_frsub
    mpu_9150.o(i.MahonyQuaternionUpdate) refers to fmul.o(x$fpl$fmul) for __aeabi_fmul
    mpu_9150.o(i.MahonyQuaternionUpdate) refers to faddsub.o(x$fpl$fadd) for __aeabi_fadd
    mpu_9150.o(i.MahonyQuaternionUpdate) refers to f2d.o(.text) for __aeabi_f2d
    mpu_9150.o(i.MahonyQuaternionUpdate) refers to sqrt.o(i.sqrt) for sqrt
    mpu_9150.o(i.MahonyQuaternionUpdate) refers to d2f.o(.text) for __aeabi_d2f
    mpu_9150.o(i.MahonyQuaternionUpdate) refers to feqf.o(x$fpl$feqf) for __aeabi_cfcmpeq
    mpu_9150.o(i.MahonyQuaternionUpdate) refers to fdiv.o(.text) for __aeabi_fdiv
    mpu_9150.o(i.MahonyQuaternionUpdate) refers to faddsub.o(x$fpl$fsub) for __aeabi_fsub
    mpu_9150.o(i.MahonyQuaternionUpdate) refers to mpu_9150.o(.data) for q
    mpu_9150.o(i.MahonyQuaternionUpdate) refers to mpu_9150.o(.bss) for eInt
    mpu_9150.o(i.calibrateMPU9150) refers to mpu_9150.o(i.MPU9150_writeByte) for MPU9150_writeByte
    mpu_9150.o(i.calibrateMPU9150) refers to mpu_9150.o(i.wait) for wait
    mpu_9150.o(i.calibrateMPU9150) refers to mpu_9150.o(i.MPU9150_readBytes) for MPU9150_readBytes
    mpu_9150.o(i.calibrateMPU9150) refers to aeabi_sdiv.o(.text) for __aeabi_idivmod
    mpu_9150.o(i.calibrateMPU9150) refers to fflti.o(.text) for __aeabi_ui2f
    mpu_9150.o(i.calibrateMPU9150) refers to fdiv.o(.text) for __aeabi_fdiv
    mpu_9150.o(i.getAres) refers to mpu_9150.o(.data) for Ascale
    mpu_9150.o(i.getGres) refers to mpu_9150.o(.data) for Gscale
    mpu_9150.o(i.initAK8975A) refers to mpu_9150.o(i.MPU9150_writeByte) for MPU9150_writeByte
    mpu_9150.o(i.initAK8975A) refers to mpu_9150.o(i.wait) for wait
    mpu_9150.o(i.initAK8975A) refers to mpu_9150.o(i.MPU9150_readBytes) for MPU9150_readBytes
    mpu_9150.o(i.initAK8975A) refers to fflti.o(.text) for __aeabi_i2f
    mpu_9150.o(i.initAK8975A) refers to fdiv.o(.text) for __aeabi_fdiv
    mpu_9150.o(i.initAK8975A) refers to faddsub.o(x$fpl$fadd) for __aeabi_fadd
    mpu_9150.o(i.initMPU9150) refers to rt_memcpy.o(.emb_text) for __aeabi_memcpy4
    mpu_9150.o(i.initMPU9150) refers to mpu_9150.o(i.resetMPU9150) for resetMPU9150
    mpu_9150.o(i.initMPU9150) refers to mpu_9150.o(i.MPU9150_writeByte) for MPU9150_writeByte
    mpu_9150.o(i.initMPU9150) refers to mpu_9150.o(i.wait) for wait
    mpu_9150.o(i.initMPU9150) refers to mpu_9150.o(i.MPU9150_readByte) for MPU9150_readByte
    mpu_9150.o(i.initMPU9150) refers to mpu_9150.o(i.initAK8975A) for initAK8975A
    mpu_9150.o(i.initMPU9150) refers to mpu_9150.o(i.readMagData) for readMagData
    mpu_9150.o(i.initMPU9150) refers to mpu_9150.o(.bss) for magCalibration
    mpu_9150.o(i.initMPU9150) refers to mpu_9150.o(.data) for Gscale
    mpu_9150.o(i.readAccelData) refers to mpu_9150.o(i.MPU9150_readBytes) for MPU9150_readBytes
    mpu_9150.o(i.readAccelFloatMG) refers to mpu_9150.o(i.readAccelData) for readAccelData
    mpu_9150.o(i.readAccelFloatMG) refers to mpu_9150.o(i.getAres) for getAres
    mpu_9150.o(i.readAccelFloatMG) refers to fflti.o(.text) for __aeabi_i2f
    mpu_9150.o(i.readAccelFloatMG) refers to fmul.o(x$fpl$fmul) for __aeabi_fmul
    mpu_9150.o(i.readAccelFloatMG) refers to mpu_9150.o(.data) for aRes
    mpu_9150.o(i.readGyroData) refers to mpu_9150.o(i.MPU9150_readBytes) for MPU9150_readBytes
    mpu_9150.o(i.readGyroFloatDeg) refers to mpu_9150.o(i.readGyroData) for readGyroData
    mpu_9150.o(i.readGyroFloatDeg) refers to mpu_9150.o(i.getGres) for getGres
    mpu_9150.o(i.readGyroFloatDeg) refers to fflti.o(.text) for __aeabi_i2f
    mpu_9150.o(i.readGyroFloatDeg) refers to fmul.o(x$fpl$fmul) for __aeabi_fmul
    mpu_9150.o(i.readGyroFloatDeg) refers to mpu_9150.o(.data) for gRes
    mpu_9150.o(i.readMagData) refers to mpu_9150.o(i.MPU9150_writeByte) for MPU9150_writeByte
    mpu_9150.o(i.readMagData) refers to mpu_9150.o(i.wait) for wait
    mpu_9150.o(i.readMagData) refers to mpu_9150.o(i.MPU9150_readBytes) for MPU9150_readBytes
    mpu_9150.o(i.readMagData) refers to mpu_9150.o(i.MPU9150_readByte) for MPU9150_readByte
    mpu_9150.o(i.readMagData) refers to mpu_9150.o(.emb_text) for __asm___10_MPU_9150_c_Ascale__nrf_delay_us
    mpu_9150.o(i.readMagFloatUT) refers to mpu_9150.o(i.readMagData) for readMagData
    mpu_9150.o(i.readMagFloatUT) refers to f2d.o(.text) for __aeabi_f2d
    mpu_9150.o(i.readMagFloatUT) refers to dflti.o(.text) for __aeabi_i2d
    mpu_9150.o(i.readMagFloatUT) refers to dmul.o(.text) for __aeabi_dmul
    mpu_9150.o(i.readMagFloatUT) refers to ddiv.o(.text) for __aeabi_ddiv
    mpu_9150.o(i.readMagFloatUT) refers to d2f.o(.text) for __aeabi_d2f
    mpu_9150.o(i.readMagFloatUT) refers to faddsub.o(x$fpl$fadd) for __aeabi_fadd
    mpu_9150.o(i.readMagFloatUT) refers to mpu_9150.o(.bss) for magCalibration
    mpu_9150.o(i.readQuaternion) refers to mpu_9150.o(i.readAccelFloatMG) for readAccelFloatMG
    mpu_9150.o(i.readQuaternion) refers to mpu_9150.o(i.readGyroFloatDeg) for readGyroFloatDeg
    mpu_9150.o(i.readQuaternion) refers to mpu_9150.o(i.readMagFloatUT) for readMagFloatUT
    mpu_9150.o(i.readQuaternion) refers to mpu_9150.o(i.MadgwickQuaternionUpdate) for MadgwickQuaternionUpdate
    mpu_9150.o(i.readQuaternion) refers to mpu_9150.o(.data) for q
    mpu_9150.o(i.readTempData) refers to mpu_9150.o(i.MPU9150_readBytes) for MPU9150_readBytes
    mpu_9150.o(i.resetMPU9150) refers to mpu_9150.o(i.MPU9150_writeByte) for MPU9150_writeByte
    mpu_9150.o(i.resetMPU9150) refers to mpu_9150.o(i.wait) for wait
    mpu_9150.o(i.wait) refers to f2d.o(.text) for __aeabi_f2d
    mpu_9150.o(i.wait) refers to dmul.o(.text) for __aeabi_dmul
    mpu_9150.o(i.wait) refers to dfixui.o(.text) for __aeabi_d2uiz
    mpu_9150.o(i.wait) refers to mpu_9150.o(.emb_text) for __asm___10_MPU_9150_c_Ascale__nrf_delay_us
    inv_mpu.o(i.accel_6500_self_test) refers to inv_mpu.o(i.i2c_read) for i2c_read
    inv_mpu.o(i.accel_6500_self_test) refers to fflti.o(.text) for __aeabi_ui2f
    inv_mpu.o(i.accel_6500_self_test) refers to fmul.o(x$fpl$fmul) for __aeabi_fmul
    inv_mpu.o(i.accel_6500_self_test) refers to fdiv.o(.text) for __aeabi_fdiv
    inv_mpu.o(i.accel_6500_self_test) refers to faddsub.o(x$fpl$fsub) for __aeabi_fsub
    inv_mpu.o(i.accel_6500_self_test) refers to f2d.o(.text) for __aeabi_f2d
    inv_mpu.o(i.accel_6500_self_test) refers to drlef.o(x$fpl$drleqf) for __aeabi_cdrcmple
    inv_mpu.o(i.accel_6500_self_test) refers to flef.o(x$fpl$fleqf) for __aeabi_cfcmple
    inv_mpu.o(i.accel_6500_self_test) refers to frlef.o(x$fpl$frleqf) for __aeabi_cfrcmple
    inv_mpu.o(i.accel_6500_self_test) refers to dflti.o(.text) for __aeabi_i2d
    inv_mpu.o(i.accel_6500_self_test) refers to inv_mpu.o(.data) for st
    inv_mpu.o(i.accel_6500_self_test) refers to inv_mpu.o(.constdata) for mpu_6500_st_tb
    inv_mpu.o(i.compass_self_test) refers to inv_mpu.o(i.mpu_set_bypass) for mpu_set_bypass
    inv_mpu.o(i.compass_self_test) refers to inv_mpu.o(i.i2c_write) for i2c_write
    inv_mpu.o(i.compass_self_test) refers to inv_mpu.o(i.delay_ms) for delay_ms
    inv_mpu.o(i.compass_self_test) refers to inv_mpu.o(i.i2c_read) for i2c_read
    inv_mpu.o(i.compass_self_test) refers to inv_mpu.o(.data) for st
    inv_mpu.o(i.delay_ms) refers to inv_mpu.o(.emb_text) for __asm___9_inv_mpu_c_delay_ms__nrf_delay_us
    inv_mpu.o(i.get_ms) refers to app_timer.o(i.app_timer_cnt_get) for app_timer_cnt_get
    inv_mpu.o(i.get_st_6500_biases) refers to inv_mpu.o(i.i2c_write) for i2c_write
    inv_mpu.o(i.get_st_6500_biases) refers to inv_mpu.o(i.delay_ms) for delay_ms
    inv_mpu.o(i.get_st_6500_biases) refers to inv_mpu.o(i.i2c_read) for i2c_read
    inv_mpu.o(i.get_st_6500_biases) refers to aeabi_sdiv.o(.text) for __aeabi_idivmod
    inv_mpu.o(i.get_st_6500_biases) refers to inv_mpu.o(.data) for st
    inv_mpu.o(i.get_st_6500_biases) refers to inv_mpu.o(.constdata) for test
    inv_mpu.o(i.get_st_6500_biases) refers to llsdiv.o(.text) for __aeabi_ldivmod
    inv_mpu.o(i.get_st_biases) refers to inv_mpu.o(i.i2c_write) for i2c_write
    inv_mpu.o(i.get_st_biases) refers to inv_mpu.o(i.delay_ms) for delay_ms
    inv_mpu.o(i.get_st_biases) refers to inv_mpu.o(i.i2c_read) for i2c_read
    inv_mpu.o(i.get_st_biases) refers to aeabi_sdiv.o(.text) for __aeabi_idivmod
    inv_mpu.o(i.get_st_biases) refers to llsdiv.o(.text) for __aeabi_ldivmod
    inv_mpu.o(i.get_st_biases) refers to inv_mpu.o(.data) for st
    inv_mpu.o(i.get_st_biases) refers to inv_mpu.o(.constdata) for test
    inv_mpu.o(i.gyro_6500_self_test) refers to inv_mpu.o(i.i2c_read) for i2c_read
    inv_mpu.o(i.gyro_6500_self_test) refers to fflti.o(.text) for __aeabi_ui2f
    inv_mpu.o(i.gyro_6500_self_test) refers to fmul.o(x$fpl$fmul) for __aeabi_fmul
    inv_mpu.o(i.gyro_6500_self_test) refers to fdiv.o(.text) for __aeabi_fdiv
    inv_mpu.o(i.gyro_6500_self_test) refers to f2d.o(.text) for __aeabi_f2d
    inv_mpu.o(i.gyro_6500_self_test) refers to dlef.o(x$fpl$dleqf) for __aeabi_cdcmple
    inv_mpu.o(i.gyro_6500_self_test) refers to flef.o(x$fpl$fleqf) for __aeabi_cfcmple
    inv_mpu.o(i.gyro_6500_self_test) refers to dflti.o(.text) for __aeabi_i2d
    inv_mpu.o(i.gyro_6500_self_test) refers to drlef.o(x$fpl$drleqf) for __aeabi_cdrcmple
    inv_mpu.o(i.gyro_6500_self_test) refers to inv_mpu.o(.data) for st
    inv_mpu.o(i.gyro_6500_self_test) refers to inv_mpu.o(.constdata) for mpu_6500_st_tb
    inv_mpu.o(i.i2c_read) refers to inv_mpu.o(i.i2c_read_) for i2c_read_
    inv_mpu.o(i.i2c_read_) refers to communication.o(i.I2C_Write) for I2C_Write
    inv_mpu.o(i.i2c_read_) refers to communication.o(i.I2C_Read) for I2C_Read
    inv_mpu.o(i.i2c_write) refers to inv_mpu.o(i.i2c_write_one) for i2c_write_one
    inv_mpu.o(i.i2c_write_) refers to communication.o(i.I2C_Write) for I2C_Write
    inv_mpu.o(i.i2c_write_one) refers to inv_mpu.o(i.i2c_write_) for i2c_write_
    inv_mpu.o(i.mpu_configure_fifo) refers to inv_mpu.o(i.set_int_enable) for set_int_enable
    inv_mpu.o(i.mpu_configure_fifo) refers to inv_mpu.o(i.mpu_reset_fifo) for mpu_reset_fifo
    inv_mpu.o(i.mpu_configure_fifo) refers to inv_mpu.o(.data) for st
    inv_mpu.o(i.mpu_get_accel_fsr) refers to inv_mpu.o(.data) for st
    inv_mpu.o(i.mpu_get_accel_reg) refers to inv_mpu.o(i.i2c_read) for i2c_read
    inv_mpu.o(i.mpu_get_accel_reg) refers to inv_mpu.o(i.get_ms) for get_ms
    inv_mpu.o(i.mpu_get_accel_reg) refers to inv_mpu.o(.data) for st
    inv_mpu.o(i.mpu_get_accel_sens) refers to inv_mpu.o(.data) for st
    inv_mpu.o(i.mpu_get_compass_fsr) refers to inv_mpu.o(.data) for st
    inv_mpu.o(i.mpu_get_compass_reg) refers to inv_mpu.o(i.i2c_read) for i2c_read
    inv_mpu.o(i.mpu_get_compass_reg) refers to inv_mpu.o(i.get_ms) for get_ms
    inv_mpu.o(i.mpu_get_compass_reg) refers to inv_mpu.o(.data) for st
    inv_mpu.o(i.mpu_get_compass_sample_rate) refers to inv_mpu.o(.data) for st
    inv_mpu.o(i.mpu_get_dmp_state) refers to inv_mpu.o(.data) for st
    inv_mpu.o(i.mpu_get_fifo_config) refers to inv_mpu.o(.data) for st
    inv_mpu.o(i.mpu_get_gyro_fsr) refers to inv_mpu.o(.data) for st
    inv_mpu.o(i.mpu_get_gyro_reg) refers to inv_mpu.o(i.i2c_read) for i2c_read
    inv_mpu.o(i.mpu_get_gyro_reg) refers to inv_mpu.o(i.get_ms) for get_ms
    inv_mpu.o(i.mpu_get_gyro_reg) refers to inv_mpu.o(.data) for st
    inv_mpu.o(i.mpu_get_gyro_sens) refers to inv_mpu.o(.data) for st
    inv_mpu.o(i.mpu_get_int_status) refers to inv_mpu.o(i.i2c_read) for i2c_read
    inv_mpu.o(i.mpu_get_int_status) refers to inv_mpu.o(.data) for st
    inv_mpu.o(i.mpu_get_lpf) refers to inv_mpu.o(i.__ARM_common_switch8) for __ARM_common_switch8
    inv_mpu.o(i.mpu_get_lpf) refers to inv_mpu.o(.data) for st
    inv_mpu.o(i.mpu_get_power_state) refers to inv_mpu.o(.data) for st
    inv_mpu.o(i.mpu_get_sample_rate) refers to inv_mpu.o(.data) for st
    inv_mpu.o(i.mpu_get_temperature) refers to inv_mpu.o(i.i2c_read) for i2c_read
    inv_mpu.o(i.mpu_get_temperature) refers to inv_mpu.o(i.get_ms) for get_ms
    inv_mpu.o(i.mpu_get_temperature) refers to fflti.o(.text) for __aeabi_ui2f
    inv_mpu.o(i.mpu_get_temperature) refers to faddsub.o(x$fpl$fsub) for __aeabi_fsub
    inv_mpu.o(i.mpu_get_temperature) refers to fdiv.o(.text) for __aeabi_fdiv
    inv_mpu.o(i.mpu_get_temperature) refers to faddsub.o(x$fpl$fadd) for __aeabi_fadd
    inv_mpu.o(i.mpu_get_temperature) refers to fmul.o(x$fpl$fmul) for __aeabi_fmul
    inv_mpu.o(i.mpu_get_temperature) refers to ffixi.o(.text) for __aeabi_f2iz
    inv_mpu.o(i.mpu_get_temperature) refers to inv_mpu.o(.data) for st
    inv_mpu.o(i.mpu_init) refers to inv_mpu.o(i.i2c_write) for i2c_write
    inv_mpu.o(i.mpu_init) refers to inv_mpu.o(i.delay_ms) for delay_ms
    inv_mpu.o(i.mpu_init) refers to rt_memclr.o(.text) for __aeabi_memclr
    inv_mpu.o(i.mpu_init) refers to inv_mpu.o(i.mpu_set_gyro_fsr) for mpu_set_gyro_fsr
    inv_mpu.o(i.mpu_init) refers to inv_mpu.o(i.mpu_set_accel_fsr) for mpu_set_accel_fsr
    inv_mpu.o(i.mpu_init) refers to inv_mpu.o(i.mpu_set_lpf) for mpu_set_lpf
    inv_mpu.o(i.mpu_init) refers to inv_mpu.o(i.mpu_set_sample_rate) for mpu_set_sample_rate
    inv_mpu.o(i.mpu_init) refers to inv_mpu.o(i.mpu_configure_fifo) for mpu_configure_fifo
    inv_mpu.o(i.mpu_init) refers to inv_mpu.o(i.setup_compass) for setup_compass
    inv_mpu.o(i.mpu_init) refers to inv_mpu.o(i.mpu_set_compass_sample_rate) for mpu_set_compass_sample_rate
    inv_mpu.o(i.mpu_init) refers to inv_mpu.o(i.mpu_set_sensors) for mpu_set_sensors
    inv_mpu.o(i.mpu_init) refers to inv_mpu.o(.data) for st
    inv_mpu.o(i.mpu_load_firmware) refers to inv_mpu.o(i.mpu_write_mem) for mpu_write_mem
    inv_mpu.o(i.mpu_load_firmware) refers to inv_mpu.o(i.mpu_read_mem) for mpu_read_mem
    inv_mpu.o(i.mpu_load_firmware) refers to memcmp.o(.text) for memcmp
    inv_mpu.o(i.mpu_load_firmware) refers to inv_mpu.o(i.i2c_write) for i2c_write
    inv_mpu.o(i.mpu_load_firmware) refers to inv_mpu.o(.data) for st
    inv_mpu.o(i.mpu_lp_accel_mode) refers to inv_mpu.o(i.mpu_set_int_latched) for mpu_set_int_latched
    inv_mpu.o(i.mpu_lp_accel_mode) refers to inv_mpu.o(i.i2c_write) for i2c_write
    inv_mpu.o(i.mpu_lp_accel_mode) refers to inv_mpu.o(i.mpu_configure_fifo) for mpu_configure_fifo
    inv_mpu.o(i.mpu_lp_accel_mode) refers to inv_mpu.o(.data) for st
    inv_mpu.o(i.mpu_lp_motion_interrupt) refers to inv_mpu.o(i.mpu_set_dmp_state) for mpu_set_dmp_state
    inv_mpu.o(i.mpu_lp_motion_interrupt) refers to inv_mpu.o(i.mpu_get_gyro_fsr) for mpu_get_gyro_fsr
    inv_mpu.o(i.mpu_lp_motion_interrupt) refers to inv_mpu.o(i.mpu_get_accel_fsr) for mpu_get_accel_fsr
    inv_mpu.o(i.mpu_lp_motion_interrupt) refers to inv_mpu.o(i.mpu_get_lpf) for mpu_get_lpf
    inv_mpu.o(i.mpu_lp_motion_interrupt) refers to inv_mpu.o(i.mpu_get_sample_rate) for mpu_get_sample_rate
    inv_mpu.o(i.mpu_lp_motion_interrupt) refers to inv_mpu.o(i.mpu_get_fifo_config) for mpu_get_fifo_config
    inv_mpu.o(i.mpu_lp_motion_interrupt) refers to inv_mpu.o(i.set_int_enable) for set_int_enable
    inv_mpu.o(i.mpu_lp_motion_interrupt) refers to inv_mpu.o(i.i2c_write) for i2c_write
    inv_mpu.o(i.mpu_lp_motion_interrupt) refers to inv_mpu.o(i.mpu_set_sensors) for mpu_set_sensors
    inv_mpu.o(i.mpu_lp_motion_interrupt) refers to inv_mpu.o(i.mpu_set_gyro_fsr) for mpu_set_gyro_fsr
    inv_mpu.o(i.mpu_lp_motion_interrupt) refers to inv_mpu.o(i.mpu_set_accel_fsr) for mpu_set_accel_fsr
    inv_mpu.o(i.mpu_lp_motion_interrupt) refers to inv_mpu.o(i.mpu_set_lpf) for mpu_set_lpf
    inv_mpu.o(i.mpu_lp_motion_interrupt) refers to inv_mpu.o(i.mpu_set_sample_rate) for mpu_set_sample_rate
    inv_mpu.o(i.mpu_lp_motion_interrupt) refers to inv_mpu.o(i.mpu_configure_fifo) for mpu_configure_fifo
    inv_mpu.o(i.mpu_lp_motion_interrupt) refers to inv_mpu.o(.data) for st
    inv_mpu.o(i.mpu_read_6050_accel_bias) refers to inv_mpu.o(i.i2c_read) for i2c_read
    inv_mpu.o(i.mpu_read_6050_accel_bias) refers to inv_mpu.o(.data) for st
    inv_mpu.o(i.mpu_read_6500_accel_bias) refers to inv_mpu.o(i.i2c_read) for i2c_read
    inv_mpu.o(i.mpu_read_6500_accel_bias) refers to inv_mpu.o(.data) for st
    inv_mpu.o(i.mpu_read_6500_gyro_bias) refers to inv_mpu.o(i.i2c_read) for i2c_read
    inv_mpu.o(i.mpu_read_6500_gyro_bias) refers to inv_mpu.o(.data) for st
    inv_mpu.o(i.mpu_read_fifo) refers to inv_mpu.o(i.i2c_read) for i2c_read
    inv_mpu.o(i.mpu_read_fifo) refers to inv_mpu.o(i.mpu_reset_fifo) for mpu_reset_fifo
    inv_mpu.o(i.mpu_read_fifo) refers to inv_mpu.o(i.get_ms) for get_ms
    inv_mpu.o(i.mpu_read_fifo) refers to aeabi_sdiv.o(.text) for __aeabi_idivmod
    inv_mpu.o(i.mpu_read_fifo) refers to inv_mpu.o(.data) for st
    inv_mpu.o(i.mpu_read_fifo_stream) refers to inv_mpu.o(i.i2c_read) for i2c_read
    inv_mpu.o(i.mpu_read_fifo_stream) refers to inv_mpu.o(i.mpu_reset_fifo) for mpu_reset_fifo
    inv_mpu.o(i.mpu_read_fifo_stream) refers to aeabi_sdiv.o(.text) for __aeabi_idivmod
    inv_mpu.o(i.mpu_read_fifo_stream) refers to inv_mpu.o(.data) for st
    inv_mpu.o(i.mpu_read_mem) refers to inv_mpu.o(i.i2c_write) for i2c_write
    inv_mpu.o(i.mpu_read_mem) refers to inv_mpu.o(i.i2c_read) for i2c_read
    inv_mpu.o(i.mpu_read_mem) refers to inv_mpu.o(.data) for st
    inv_mpu.o(i.mpu_read_reg) refers to inv_mpu.o(i.i2c_read) for i2c_read
    inv_mpu.o(i.mpu_read_reg) refers to inv_mpu.o(.data) for st
    inv_mpu.o(i.mpu_reg_dump) refers to inv_mpu.o(i.i2c_read) for i2c_read
    inv_mpu.o(i.mpu_reg_dump) refers to inv_mpu.o(.data) for st
    inv_mpu.o(i.mpu_reset_fifo) refers to inv_mpu.o(i.i2c_write) for i2c_write
    inv_mpu.o(i.mpu_reset_fifo) refers to inv_mpu.o(i.delay_ms) for delay_ms
    inv_mpu.o(i.mpu_reset_fifo) refers to inv_mpu.o(.data) for st
    inv_mpu.o(i.mpu_run_6500_self_test) refers to inv_mpu.o(i.mpu_set_dmp_state) for mpu_set_dmp_state
    inv_mpu.o(i.mpu_run_6500_self_test) refers to inv_mpu.o(i.mpu_get_gyro_fsr) for mpu_get_gyro_fsr
    inv_mpu.o(i.mpu_run_6500_self_test) refers to inv_mpu.o(i.mpu_get_accel_fsr) for mpu_get_accel_fsr
    inv_mpu.o(i.mpu_run_6500_self_test) refers to inv_mpu.o(i.mpu_get_lpf) for mpu_get_lpf
    inv_mpu.o(i.mpu_run_6500_self_test) refers to inv_mpu.o(i.mpu_get_sample_rate) for mpu_get_sample_rate
    inv_mpu.o(i.mpu_run_6500_self_test) refers to inv_mpu.o(i.mpu_get_fifo_config) for mpu_get_fifo_config
    inv_mpu.o(i.mpu_run_6500_self_test) refers to inv_mpu.o(i.get_st_6500_biases) for get_st_6500_biases
    inv_mpu.o(i.mpu_run_6500_self_test) refers to inv_mpu.o(i.accel_6500_self_test) for accel_6500_self_test
    inv_mpu.o(i.mpu_run_6500_self_test) refers to inv_mpu.o(i.gyro_6500_self_test) for gyro_6500_self_test
    inv_mpu.o(i.mpu_run_6500_self_test) refers to inv_mpu.o(i.compass_self_test) for compass_self_test
    inv_mpu.o(i.mpu_run_6500_self_test) refers to inv_mpu.o(i.mpu_set_gyro_fsr) for mpu_set_gyro_fsr
    inv_mpu.o(i.mpu_run_6500_self_test) refers to inv_mpu.o(i.mpu_set_accel_fsr) for mpu_set_accel_fsr
    inv_mpu.o(i.mpu_run_6500_self_test) refers to inv_mpu.o(i.mpu_set_lpf) for mpu_set_lpf
    inv_mpu.o(i.mpu_run_6500_self_test) refers to inv_mpu.o(i.mpu_set_sample_rate) for mpu_set_sample_rate
    inv_mpu.o(i.mpu_run_6500_self_test) refers to inv_mpu.o(i.mpu_set_sensors) for mpu_set_sensors
    inv_mpu.o(i.mpu_run_6500_self_test) refers to inv_mpu.o(i.mpu_configure_fifo) for mpu_configure_fifo
    inv_mpu.o(i.mpu_run_6500_self_test) refers to inv_mpu.o(.data) for st
    inv_mpu.o(i.mpu_run_self_test) refers to inv_mpu.o(i.mpu_set_dmp_state) for mpu_set_dmp_state
    inv_mpu.o(i.mpu_run_self_test) refers to inv_mpu.o(i.mpu_get_gyro_fsr) for mpu_get_gyro_fsr
    inv_mpu.o(i.mpu_run_self_test) refers to inv_mpu.o(i.mpu_get_accel_fsr) for mpu_get_accel_fsr
    inv_mpu.o(i.mpu_run_self_test) refers to inv_mpu.o(i.mpu_get_lpf) for mpu_get_lpf
    inv_mpu.o(i.mpu_run_self_test) refers to inv_mpu.o(i.mpu_get_sample_rate) for mpu_get_sample_rate
    inv_mpu.o(i.mpu_run_self_test) refers to inv_mpu.o(i.mpu_get_fifo_config) for mpu_get_fifo_config
    inv_mpu.o(i.mpu_run_self_test) refers to inv_mpu.o(i.get_st_biases) for get_st_biases
    inv_mpu.o(i.mpu_run_self_test) refers to inv_mpu.o(i.mpu_set_gyro_fsr) for mpu_set_gyro_fsr
    inv_mpu.o(i.mpu_run_self_test) refers to inv_mpu.o(i.mpu_set_accel_fsr) for mpu_set_accel_fsr
    inv_mpu.o(i.mpu_run_self_test) refers to inv_mpu.o(i.mpu_set_lpf) for mpu_set_lpf
    inv_mpu.o(i.mpu_run_self_test) refers to inv_mpu.o(i.mpu_set_sample_rate) for mpu_set_sample_rate
    inv_mpu.o(i.mpu_run_self_test) refers to inv_mpu.o(i.mpu_set_sensors) for mpu_set_sensors
    inv_mpu.o(i.mpu_run_self_test) refers to inv_mpu.o(i.mpu_configure_fifo) for mpu_configure_fifo
    inv_mpu.o(i.mpu_run_self_test) refers to inv_mpu.o(.data) for st
    inv_mpu.o(i.mpu_set_accel_bias_6050_reg) refers to inv_mpu.o(i.mpu_read_6050_accel_bias) for mpu_read_6050_accel_bias
    inv_mpu.o(i.mpu_set_accel_bias_6050_reg) refers to inv_mpu.o(i.i2c_write) for i2c_write
    inv_mpu.o(i.mpu_set_accel_bias_6050_reg) refers to inv_mpu.o(.data) for st
    inv_mpu.o(i.mpu_set_accel_bias_6500_reg) refers to inv_mpu.o(i.mpu_read_6500_accel_bias) for mpu_read_6500_accel_bias
    inv_mpu.o(i.mpu_set_accel_bias_6500_reg) refers to inv_mpu.o(i.i2c_write) for i2c_write
    inv_mpu.o(i.mpu_set_accel_bias_6500_reg) refers to inv_mpu.o(.data) for st
    inv_mpu.o(i.mpu_set_accel_fsr) refers to inv_mpu.o(i.i2c_write) for i2c_write
    inv_mpu.o(i.mpu_set_accel_fsr) refers to inv_mpu.o(.data) for st
    inv_mpu.o(i.mpu_set_bypass) refers to inv_mpu.o(i.i2c_write) for i2c_write
    inv_mpu.o(i.mpu_set_bypass) refers to inv_mpu.o(i.i2c_read) for i2c_read
    inv_mpu.o(i.mpu_set_bypass) refers to inv_mpu.o(i.delay_ms) for delay_ms
    inv_mpu.o(i.mpu_set_bypass) refers to inv_mpu.o(.data) for st
    inv_mpu.o(i.mpu_set_compass_sample_rate) refers to aeabi_sdiv.o(.text) for __aeabi_idivmod
    inv_mpu.o(i.mpu_set_compass_sample_rate) refers to inv_mpu.o(i.i2c_write) for i2c_write
    inv_mpu.o(i.mpu_set_compass_sample_rate) refers to inv_mpu.o(.data) for st
    inv_mpu.o(i.mpu_set_dmp_state) refers to inv_mpu.o(i.set_int_enable) for set_int_enable
    inv_mpu.o(i.mpu_set_dmp_state) refers to inv_mpu.o(i.mpu_set_bypass) for mpu_set_bypass
    inv_mpu.o(i.mpu_set_dmp_state) refers to inv_mpu.o(i.mpu_set_sample_rate) for mpu_set_sample_rate
    inv_mpu.o(i.mpu_set_dmp_state) refers to inv_mpu.o(i.i2c_write) for i2c_write
    inv_mpu.o(i.mpu_set_dmp_state) refers to inv_mpu.o(i.mpu_reset_fifo) for mpu_reset_fifo
    inv_mpu.o(i.mpu_set_dmp_state) refers to inv_mpu.o(.data) for st
    inv_mpu.o(i.mpu_set_gyro_bias_reg) refers to inv_mpu.o(i.i2c_write) for i2c_write
    inv_mpu.o(i.mpu_set_gyro_bias_reg) refers to inv_mpu.o(.data) for st
    inv_mpu.o(i.mpu_set_gyro_fsr) refers to inv_mpu.o(i.i2c_write) for i2c_write
    inv_mpu.o(i.mpu_set_gyro_fsr) refers to inv_mpu.o(.data) for st
    inv_mpu.o(i.mpu_set_int_latched) refers to inv_mpu.o(i.i2c_write) for i2c_write
    inv_mpu.o(i.mpu_set_int_latched) refers to inv_mpu.o(.data) for st
    inv_mpu.o(i.mpu_set_int_level) refers to inv_mpu.o(.data) for st
    inv_mpu.o(i.mpu_set_lpf) refers to inv_mpu.o(i.i2c_write) for i2c_write
    inv_mpu.o(i.mpu_set_lpf) refers to inv_mpu.o(.data) for st
    inv_mpu.o(i.mpu_set_sample_rate) refers to inv_mpu.o(i.mpu_lp_accel_mode) for mpu_lp_accel_mode
    inv_mpu.o(i.mpu_set_sample_rate) refers to aeabi_sdiv.o(.text) for __aeabi_idivmod
    inv_mpu.o(i.mpu_set_sample_rate) refers to inv_mpu.o(i.i2c_write) for i2c_write
    inv_mpu.o(i.mpu_set_sample_rate) refers to inv_mpu.o(i.mpu_set_compass_sample_rate) for mpu_set_compass_sample_rate
    inv_mpu.o(i.mpu_set_sample_rate) refers to inv_mpu.o(i.mpu_set_lpf) for mpu_set_lpf
    inv_mpu.o(i.mpu_set_sample_rate) refers to inv_mpu.o(.data) for st
    inv_mpu.o(i.mpu_set_sensors) refers to inv_mpu.o(i.i2c_write) for i2c_write
    inv_mpu.o(i.mpu_set_sensors) refers to inv_mpu.o(i.mpu_set_int_latched) for mpu_set_int_latched
    inv_mpu.o(i.mpu_set_sensors) refers to inv_mpu.o(i.i2c_read) for i2c_read
    inv_mpu.o(i.mpu_set_sensors) refers to inv_mpu.o(i.delay_ms) for delay_ms
    inv_mpu.o(i.mpu_set_sensors) refers to inv_mpu.o(.data) for st
    inv_mpu.o(i.mpu_write_mem) refers to inv_mpu.o(i.i2c_write) for i2c_write
    inv_mpu.o(i.mpu_write_mem) refers to inv_mpu.o(.data) for st
    inv_mpu.o(i.set_int_enable) refers to inv_mpu.o(i.i2c_write) for i2c_write
    inv_mpu.o(i.set_int_enable) refers to inv_mpu.o(.data) for st
    inv_mpu.o(i.setup_compass) refers to inv_mpu.o(i.mpu_set_bypass) for mpu_set_bypass
    inv_mpu.o(i.setup_compass) refers to inv_mpu.o(i.i2c_read) for i2c_read
    inv_mpu.o(i.setup_compass) refers to inv_mpu.o(i.i2c_write) for i2c_write
    inv_mpu.o(i.setup_compass) refers to inv_mpu.o(i.delay_ms) for delay_ms
    inv_mpu.o(i.setup_compass) refers to inv_mpu.o(.data) for st
    inv_mpu.o(.data) refers to inv_mpu.o(.constdata) for reg
    a2035h.o(i.initA2035H) refers to a2035h.o(.emb_text) for __asm___8_A2035H_c_7c68238a__nrf_delay_us
    a2035h.o(i.initA2035H) refers to a2035h.o(i.pullupdown_gpio_cfg_output) for pullupdown_gpio_cfg_output
    a2035h.o(i.initA2035H) refers to a2035h.o(i.nrf_gpio_pin_clear) for nrf_gpio_pin_clear
    a2035h.o(i.initA2035H) refers to a2035h.o(i.nrf_gpio_pin_set) for nrf_gpio_pin_set
    a2035h.o(i.initA2035H) refers to app_uart.o(i.app_uart_init) for app_uart_init
    a2035h.o(i.initA2035H) refers to main.o(i.app_error_handler) for app_error_handler
    a2035h.o(i.initA2035H) refers to a2035h.o(.constdata) for .constdata
    a2035h.o(i.initA2035H) refers to a2035h.o(.data) for rx_buf
    a2035h.o(i.initA2035H) refers to a2035h.o(.bss) for tx_buf
    a2035h.o(i.initA2035H) refers to a2035h.o(i.uart_event_handle_withBle) for uart_event_handle_withBle
    a2035h.o(i.uart_event_handle_withBle) refers to app_uart.o(i.app_uart_get) for app_uart_get
    a2035h.o(i.uart_event_handle_withBle) refers to ble_nus.o(i.ble_nus_string_send) for ble_nus_string_send
    a2035h.o(i.uart_event_handle_withBle) refers to main.o(i.app_error_handler) for app_error_handler
    a2035h.o(i.uart_event_handle_withBle) refers to a2035h.o(.bss) for data_array
    a2035h.o(i.uart_event_handle_withBle) refers to a2035h.o(.data) for index
    nrf_pwm.o(i.TIMER2_IRQHandler) refers to nrf_pwm.o(i.nrf_gpiote_unconfig) for nrf_gpiote_unconfig
    nrf_pwm.o(i.TIMER2_IRQHandler) refers to nrf_pwm.o(i.nrf_gpio_pin_write) for nrf_gpio_pin_write
    nrf_pwm.o(i.TIMER2_IRQHandler) refers to nrf_pwm.o(i.nrf_gpiote_task_config) for nrf_gpiote_task_config
    nrf_pwm.o(i.TIMER2_IRQHandler) refers to nrf_pwm.o(i.safe_margins_present) for safe_margins_present
    nrf_pwm.o(i.TIMER2_IRQHandler) refers to nrf_pwm.o(.data) for pwm_next_max_value
    nrf_pwm.o(i.TIMER2_IRQHandler) refers to nrf_pwm.o(.bss) for pwm_next_value
    nrf_pwm.o(i.nrf_pwm_init) refers to inv_mpu.o(i.__ARM_common_switch8) for __ARM_common_switch8
    nrf_pwm.o(i.nrf_pwm_init) refers to nrf_pwm.o(i.ppi_enable_channel) for ppi_enable_channel
    nrf_pwm.o(i.nrf_pwm_init) refers to nrf_pwm.o(i.NVIC_SetPriority) for NVIC_SetPriority
    nrf_pwm.o(i.nrf_pwm_init) refers to nrf_pwm.o(i.apply_pan73_workaround) for apply_pan73_workaround
    nrf_pwm.o(i.nrf_pwm_init) refers to nrf_pwm.o(.data) for pwm_max_value
    nrf_pwm.o(i.nrf_pwm_init) refers to nrf_pwm.o(.constdata) for pwm_cc_margin_by_prescaler
    nrf_pwm.o(i.nrf_pwm_init) refers to nrf_pwm.o(.bss) for pwm_io_ch
    nrf_pwm.o(i.nrf_pwm_set_enabled) refers to nrf_pwm.o(i.nrf_gpio_pin_write) for nrf_gpio_pin_write
    nrf_pwm.o(i.nrf_pwm_set_enabled) refers to nrf_pwm.o(.data) for pwm_num_channels
    nrf_pwm.o(i.nrf_pwm_set_enabled) refers to nrf_pwm.o(.bss) for pwm_io_ch
    nrf_pwm.o(i.nrf_pwm_set_max_value) refers to nrf_pwm.o(.data) for pwm_next_max_value
    nrf_pwm.o(i.nrf_pwm_set_value) refers to nrf_pwm.o(i.NVIC_SetPendingIRQ) for NVIC_SetPendingIRQ
    nrf_pwm.o(i.nrf_pwm_set_value) refers to nrf_pwm.o(.bss) for pwm_next_value
    nrf_pwm.o(i.nrf_pwm_set_value) refers to nrf_pwm.o(.data) for pwm_modified
    nrf_pwm.o(i.nrf_pwm_set_values) refers to nrf_pwm.o(i.NVIC_SetPendingIRQ) for NVIC_SetPendingIRQ
    nrf_pwm.o(i.nrf_pwm_set_values) refers to nrf_pwm.o(.bss) for pwm_next_value
    nrf_pwm.o(i.nrf_pwm_set_values) refers to nrf_pwm.o(.data) for pwm_modified
    nrf_pwm.o(i.safe_margins_present) refers to nrf_pwm.o(.data) for pwm_cc_update_margin_ticks
    nrf_pwm.o(i.set_frequency_and_duty_cycle) refers to aeabi_sdiv.o(.text) for __aeabi_uidivmod
    nrf_pwm.o(i.set_frequency_and_duty_cycle) refers to nrf_pwm.o(i.nrf_pwm_set_max_value) for nrf_pwm_set_max_value
    nrf_pwm.o(i.set_frequency_and_duty_cycle) refers to nrf_pwm.o(i.nrf_pwm_set_value) for nrf_pwm_set_value
    ad9837.o(i.AD9837_Enable) refers to ad9837.o(i.AD9837_SetRegisterValue) for AD9837_SetRegisterValue
    ad9837.o(i.AD9837_Init) refers to ad9837.o(i.spi_master_init) for spi_master_init
    ad9837.o(i.AD9837_Init) refers to ad9837.o(i.AD9837_Reset) for AD9837_Reset
    ad9837.o(i.AD9837_Init) refers to ad9837.o(i.AD9837_SetFrequency) for AD9837_SetFrequency
    ad9837.o(i.AD9837_Init) refers to ad9837.o(i.AD9837_SetPhase) for AD9837_SetPhase
    ad9837.o(i.AD9837_Reset) refers to ad9837.o(i.AD9837_SetRegisterValue) for AD9837_SetRegisterValue
    ad9837.o(i.AD9837_SetFrequency) refers to ad9837.o(i.AD9837_SetRegisterValue) for AD9837_SetRegisterValue
    ad9837.o(i.AD9837_SetPhase) refers to ad9837.o(i.AD9837_SetRegisterValue) for AD9837_SetRegisterValue
    ad9837.o(i.AD9837_SetRegisterValue) refers to ad9837.o(i.SPI_Write) for SPI_Write
    ad9837.o(i.AD9837_SetRegisterValue) refers to ad9837.o(.data) for m_rx_data_spi
    ad9837.o(i.AD9837_SetWave) refers to ad9837.o(i.AD9837_SetRegisterValue) for AD9837_SetRegisterValue
    ad9837.o(i.SPI_Write) refers to spi_master.o(i.spi_master_send_recv) for spi_master_send_recv
    ad9837.o(i.SPI_Write) refers to main.o(i.app_error_handler) for app_error_handler
    ad9837.o(i.spi_master_init) refers to rt_memcpy.o(.emb_text) for __aeabi_memcpy4
    ad9837.o(i.spi_master_init) refers to spi_master.o(i.spi_master_open) for spi_master_open
    ad9837.o(i.spi_master_init) refers to main.o(i.app_error_handler) for app_error_handler
    ad9837.o(i.spi_master_init) refers to spi_master.o(i.spi_master_evt_handler_reg) for spi_master_evt_handler_reg
    ad9837.o(i.spi_master_init) refers to ad9837.o(.constdata) for .constdata
    ltc2943.o(i.convert_bin_to_uAh) refers to aeabi_sdiv.o(.text) for __aeabi_idivmod
    ltc2943.o(i.i2c_smbus_write_i2c_block_data) refers to communication.o(i.I2C_Write) for I2C_Write
    ltc2943.o(i.i2c_transfer) refers to communication.o(i.I2C_Read) for I2C_Read
    ltc2943.o(i.i2c_transfer) refers to communication.o(i.I2C_Write) for I2C_Write
    ltc2943.o(i.ltc294x_get_charge_counter) refers to ltc2943.o(i.ltc294x_read_charge_register) for ltc294x_read_charge_register
    ltc2943.o(i.ltc294x_get_charge_counter) refers to ltc2943.o(i.convert_bin_to_uAh) for convert_bin_to_uAh
    ltc2943.o(i.ltc294x_get_charge_counter) refers to ltc2943.o(.bss) for ltc2943_info
    ltc2943.o(i.ltc294x_get_charge_now) refers to ltc2943.o(i.ltc294x_read_charge_register) for ltc294x_read_charge_register
    ltc2943.o(i.ltc294x_get_charge_now) refers to ltc2943.o(i.convert_bin_to_uAh) for convert_bin_to_uAh
    ltc2943.o(i.ltc294x_get_charge_now) refers to ltc2943.o(.bss) for ltc2943_info
    ltc2943.o(i.ltc294x_get_current) refers to nrf_delay.o(i.nrf_delay_ms) for nrf_delay_ms
    ltc2943.o(i.ltc294x_get_current) refers to ltc2943.o(i.ltc294x_read_regs) for ltc294x_read_regs
    ltc2943.o(i.ltc294x_get_current) refers to aeabi_sdiv.o(.text) for __aeabi_idivmod
    ltc2943.o(i.ltc294x_get_current) refers to ltc2943.o(.bss) for ltc2943_info
    ltc2943.o(i.ltc294x_get_temperature) refers to ltc2943.o(i.ltc294x_read_regs) for ltc294x_read_regs
    ltc2943.o(i.ltc294x_get_temperature) refers to aeabi_sdiv.o(.text) for __aeabi_uidivmod
    ltc2943.o(i.ltc294x_get_temperature) refers to ltc2943.o(.bss) for ltc2943_info
    ltc2943.o(i.ltc294x_get_voltage) refers to ltc2943.o(i.ltc294x_read_regs) for ltc294x_read_regs
    ltc2943.o(i.ltc294x_get_voltage) refers to aeabi_sdiv.o(.text) for __aeabi_uidivmod
    ltc2943.o(i.ltc294x_get_voltage) refers to ltc2943.o(.bss) for ltc2943_info
    ltc2943.o(i.ltc294x_init) refers to aeabi_sdiv.o(.text) for __aeabi_idivmod
    ltc2943.o(i.ltc294x_init) refers to ltc2943.o(i.ltc294x_reset) for ltc294x_reset
    ltc2943.o(i.ltc294x_init) refers to ltc2943.o(.bss) for ltc2943_client
    ltc2943.o(i.ltc294x_init) refers to ltc2943.o(.data) for ltc294x_properties
    ltc2943.o(i.ltc294x_read_charge_register) refers to ltc2943.o(i.ltc294x_read_regs) for ltc294x_read_regs
    ltc2943.o(i.ltc294x_read_charge_register) refers to ltc2943.o(.bss) for ltc2943_info
    ltc2943.o(i.ltc294x_read_regs) refers to ltc2943.o(i.i2c_transfer) for i2c_transfer
    ltc2943.o(i.ltc294x_reset) refers to ltc2943.o(i.ltc294x_read_regs) for ltc294x_read_regs
    ltc2943.o(i.ltc294x_reset) refers to ltc2943.o(i.ltc294x_write_regs) for ltc294x_write_regs
    ltc2943.o(i.ltc294x_reset) refers to ltc2943.o(.bss) for ltc2943_info
    ltc2943.o(i.ltc294x_set_charge_now) refers to aeabi_sdiv.o(.text) for __aeabi_idivmod
    ltc2943.o(i.ltc294x_set_charge_now) refers to ltc2943.o(i.ltc294x_read_regs) for ltc294x_read_regs
    ltc2943.o(i.ltc294x_set_charge_now) refers to ltc2943.o(i.ltc294x_write_regs) for ltc294x_write_regs
    ltc2943.o(i.ltc294x_set_charge_now) refers to ltc2943.o(.bss) for ltc2943_info
    ltc2943.o(i.ltc294x_update) refers to ltc2943.o(i.ltc294x_read_charge_register) for ltc294x_read_charge_register
    ltc2943.o(i.ltc294x_update) refers to ltc2943.o(.bss) for ltc2943_info
    ltc2943.o(i.ltc294x_write_regs) refers to rt_memcpy.o(.text) for __aeabi_memcpy
    ltc2943.o(i.ltc294x_write_regs) refers to ltc2943.o(i.i2c_transfer) for i2c_transfer
    mpl3115.o(i.MPL3115A2_getAltitude) refers to mpl3115.o(i.MPL3115A2_write8) for MPL3115A2_write8
    mpl3115.o(i.MPL3115A2_getAltitude) refers to mpl3115.o(i.MPL3115A2_read8) for MPL3115A2_read8
    mpl3115.o(i.MPL3115A2_getAltitude) refers to nrf_delay.o(i.nrf_delay_ms) for nrf_delay_ms
    mpl3115.o(i.MPL3115A2_getAltitude) refers to mpl3115.o(i.MPL3115A2_readBytes_) for MPL3115A2_readBytes_
    mpl3115.o(i.MPL3115A2_getAltitude) refers to fflti.o(.text) for __aeabi_i2f
    mpl3115.o(i.MPL3115A2_getAltitude) refers to f2d.o(.text) for __aeabi_f2d
    mpl3115.o(i.MPL3115A2_getAltitude) refers to ddiv.o(.text) for __aeabi_ddiv
    mpl3115.o(i.MPL3115A2_getAltitude) refers to d2f.o(.text) for __aeabi_d2f
    mpl3115.o(i.MPL3115A2_getPressure) refers to mpl3115.o(i.MPL3115A2_write8) for MPL3115A2_write8
    mpl3115.o(i.MPL3115A2_getPressure) refers to mpl3115.o(i.MPL3115A2_read8) for MPL3115A2_read8
    mpl3115.o(i.MPL3115A2_getPressure) refers to nrf_delay.o(i.nrf_delay_ms) for nrf_delay_ms
    mpl3115.o(i.MPL3115A2_getPressure) refers to mpl3115.o(i.MPL3115A2_readBytes_) for MPL3115A2_readBytes_
    mpl3115.o(i.MPL3115A2_getPressure) refers to fflti.o(.text) for __aeabi_ui2f
    mpl3115.o(i.MPL3115A2_getPressure) refers to f2d.o(.text) for __aeabi_f2d
    mpl3115.o(i.MPL3115A2_getPressure) refers to ddiv.o(.text) for __aeabi_ddiv
    mpl3115.o(i.MPL3115A2_getPressure) refers to d2f.o(.text) for __aeabi_d2f
    mpl3115.o(i.MPL3115A2_getTemperature) refers to mpl3115.o(i.MPL3115A2_read8) for MPL3115A2_read8
    mpl3115.o(i.MPL3115A2_getTemperature) refers to nrf_delay.o(i.nrf_delay_ms) for nrf_delay_ms
    mpl3115.o(i.MPL3115A2_getTemperature) refers to mpl3115.o(i.MPL3115A2_readBytes_) for MPL3115A2_readBytes_
    mpl3115.o(i.MPL3115A2_getTemperature) refers to fflti.o(.text) for __aeabi_ui2f
    mpl3115.o(i.MPL3115A2_getTemperature) refers to f2d.o(.text) for __aeabi_f2d
    mpl3115.o(i.MPL3115A2_getTemperature) refers to ddiv.o(.text) for __aeabi_ddiv
    mpl3115.o(i.MPL3115A2_getTemperature) refers to d2f.o(.text) for __aeabi_d2f
    mpl3115.o(i.MPL3115A2_init) refers to mpl3115.o(i.MPL3115A2_read8) for MPL3115A2_read8
    mpl3115.o(i.MPL3115A2_init) refers to mpl3115.o(i.MPL3115A2_write8) for MPL3115A2_write8
    mpl3115.o(i.MPL3115A2_read8) refers to communication.o(i.I2C_Write) for I2C_Write
    mpl3115.o(i.MPL3115A2_read8) refers to communication.o(i.I2C_Read) for I2C_Read
    mpl3115.o(i.MPL3115A2_readBytes_) refers to communication.o(i.I2C_Write) for I2C_Write
    mpl3115.o(i.MPL3115A2_readBytes_) refers to communication.o(i.I2C_Read) for I2C_Read
    mpl3115.o(i.MPL3115A2_write8) refers to communication.o(i.I2C_Write) for I2C_Write
    mpl3115.o(i.MPL3115A2_write8) refers to mpl3115.o(i.MPL3115A2_read8) for MPL3115A2_read8
    bsp.o(i.bsp_button_event_handler) refers to bsp.o(.data) for m_registered_callback
    bsp.o(i.bsp_button_event_handler) refers to bsp.o(.constdata) for m_buttons_list
    bsp.o(i.bsp_button_is_pressed) refers to bsp.o(.constdata) for m_buttons_list
    bsp.o(i.bsp_buttons_enable) refers to bsp.o(.constdata) for m_buttons_list
    bsp.o(i.bsp_buttons_state_get) refers to bsp.o(.constdata) for m_buttons_list
    bsp.o(i.bsp_event_to_button_assign) refers to bsp.o(.data) for m_events_list
    bsp.o(i.bsp_indication_set) refers to bsp.o(i.bsp_led_indication) for bsp_led_indication
    bsp.o(i.bsp_indication_set) refers to bsp.o(.data) for m_indication_type
    bsp.o(i.bsp_indication_text_set) refers to bsp.o(i.bsp_indication_set) for bsp_indication_set
    bsp.o(i.bsp_init) refers to bsp.o(i.bsp_event_to_button_assign) for bsp_event_to_button_assign
    bsp.o(i.bsp_init) refers to app_button.o(i.app_button_init) for app_button_init
    bsp.o(i.bsp_init) refers to app_button.o(i.app_button_enable) for app_button_enable
    bsp.o(i.bsp_init) refers to app_timer.o(i.app_timer_create) for app_timer_create
    bsp.o(i.bsp_init) refers to bsp.o(.data) for m_app_ticks_per_100ms
    bsp.o(i.bsp_init) refers to bsp.o(.constdata) for app_buttons
    bsp.o(i.bsp_init) refers to bsp.o(i.leds_timer_handler) for leds_timer_handler
    bsp.o(i.bsp_init) refers to bsp.o(i.alert_timer_handler) for alert_timer_handler
    bsp.o(i.bsp_led_indication) refers to inv_mpu.o(i.__ARM_common_switch8) for __ARM_common_switch8
    bsp.o(i.bsp_led_indication) refers to aeabi_sdiv.o(.text) for __aeabi_uidivmod
    bsp.o(i.bsp_led_indication) refers to app_timer.o(i.app_timer_start) for app_timer_start
    bsp.o(i.bsp_led_indication) refers to app_timer.o(i.app_timer_stop) for app_timer_stop
    bsp.o(i.bsp_led_indication) refers to bsp.o(.data) for m_stable_state
    bsp.o(i.leds_timer_handler) refers to bsp.o(i.bsp_led_indication) for bsp_led_indication
    bsp.o(i.leds_timer_handler) refers to bsp.o(.data) for m_indication_type
    bsp.o(.constdata) refers to bsp.o(i.bsp_button_event_handler) for bsp_button_event_handler
    arm_startup_nrf51.o(STACK) refers (Special) to heapauxi.o(.text) for __use_two_region_memory
    arm_startup_nrf51.o(HEAP) refers (Special) to heapauxi.o(.text) for __use_two_region_memory
    arm_startup_nrf51.o(RESET) refers (Special) to heapauxi.o(.text) for __use_two_region_memory
    arm_startup_nrf51.o(RESET) refers to arm_startup_nrf51.o(STACK) for __initial_sp
    arm_startup_nrf51.o(RESET) refers to arm_startup_nrf51.o(.text) for Reset_Handler
    arm_startup_nrf51.o(RESET) refers to app_uart.o(i.UART0_IRQHandler) for UART0_IRQHandler
    arm_startup_nrf51.o(RESET) refers to spi_master.o(i.SPI0_TWI0_IRQHandler) for SPI0_TWI0_IRQHandler
    arm_startup_nrf51.o(RESET) refers to spi_master.o(i.SPI1_TWI1_IRQHandler) for SPI1_TWI1_IRQHandler
    arm_startup_nrf51.o(RESET) refers to app_gpiote.o(i.GPIOTE_IRQHandler) for GPIOTE_IRQHandler
    arm_startup_nrf51.o(RESET) refers to sensoradc.o(i.ADC_IRQHandler) for ADC_IRQHandler
    arm_startup_nrf51.o(RESET) refers to nrf_pwm.o(i.TIMER2_IRQHandler) for TIMER2_IRQHandler
    arm_startup_nrf51.o(RESET) refers to app_timer.o(i.RTC1_IRQHandler) for RTC1_IRQHandler
    arm_startup_nrf51.o(RESET) refers to app_timer.o(i.SWI0_IRQHandler) for SWI0_IRQHandler
    arm_startup_nrf51.o(RESET) refers to softdevice_handler.o(i.SWI2_IRQHandler) for SWI2_IRQHandler
    arm_startup_nrf51.o(.text) refers (Special) to heapauxi.o(.text) for __use_two_region_memory
    arm_startup_nrf51.o(.text) refers to system_nrf51.o(i.SystemInit) for SystemInit
    arm_startup_nrf51.o(.text) refers to __main.o(!!!main) for __main
    arm_startup_nrf51.o(.text) refers to arm_startup_nrf51.o(HEAP) for Heap_Mem
    arm_startup_nrf51.o(.text) refers to arm_startup_nrf51.o(STACK) for Stack_Mem
    system_nrf51.o(i.SystemCoreClockUpdate) refers to system_nrf51.o(.data) for SystemCoreClock
    system_nrf51.o(i.SystemInit) refers to system_nrf51.o(i.is_manual_peripheral_setup_needed) for is_manual_peripheral_setup_needed
    system_nrf51.o(i.SystemInit) refers to system_nrf51.o(i.is_disabled_in_debug_needed) for is_disabled_in_debug_needed
    ble_advdata.o(i.adv_data_encode) refers to ble_advdata.o(i.name_encode) for name_encode
    ble_advdata.o(i.adv_data_encode) refers to ble_advdata.o(i.appearance_encode) for appearance_encode
    ble_advdata.o(i.adv_data_encode) refers to ble_advdata.o(i.tx_power_level_encode) for tx_power_level_encode
    ble_advdata.o(i.adv_data_encode) refers to ble_advdata.o(i.uuid_list_encode) for uuid_list_encode
    ble_advdata.o(i.adv_data_encode) refers to ble_advdata.o(i.conn_int_encode) for conn_int_encode
    ble_advdata.o(i.adv_data_encode) refers to ble_advdata.o(i.manuf_specific_data_encode) for manuf_specific_data_encode
    ble_advdata.o(i.adv_data_encode) refers to ble_advdata.o(i.service_data_encode) for service_data_encode
    ble_advdata.o(i.appearance_encode) refers to ble_advdata.o(i.uint16_encode) for uint16_encode
    ble_advdata.o(i.ble_advdata_set) refers to ble_advdata.o(i.advdata_check) for advdata_check
    ble_advdata.o(i.ble_advdata_set) refers to ble_advdata.o(i.adv_data_encode) for adv_data_encode
    ble_advdata.o(i.ble_advdata_set) refers to ble_advdata.o(i.srdata_check) for srdata_check
    ble_advdata.o(i.conn_int_encode) refers to ble_advdata.o(i.conn_int_check) for conn_int_check
    ble_advdata.o(i.conn_int_encode) refers to ble_advdata.o(i.uint16_encode) for uint16_encode
    ble_advdata.o(i.manuf_specific_data_encode) refers to ble_advdata.o(i.uint16_encode) for uint16_encode
    ble_advdata.o(i.manuf_specific_data_encode) refers to rt_memcpy.o(.text) for __aeabi_memcpy
    ble_advdata.o(i.service_data_encode) refers to ble_advdata.o(i.uint16_encode) for uint16_encode
    ble_advdata.o(i.service_data_encode) refers to rt_memcpy.o(.text) for __aeabi_memcpy
    ble_advdata.o(i.uuid_list_encode) refers to ble_advdata.o(i.uuid_list_sized_encode) for uuid_list_sized_encode
    ble_advertising.o(i.ble_advertising_init) refers to rt_memcpy.o(.emb_text) for __aeabi_memcpy4
    ble_advertising.o(i.ble_advertising_init) refers to ble_advertising.o(i.ble_advertising_peer_address_clear) for ble_advertising_peer_address_clear
    ble_advertising.o(i.ble_advertising_init) refers to rt_memclr.o(.text) for __aeabi_memclr4
    ble_advertising.o(i.ble_advertising_init) refers to ble_advdata.o(i.ble_advdata_set) for ble_advdata_set
    ble_advertising.o(i.ble_advertising_init) refers to ble_advertising.o(.data) for m_adv_mode_current
    ble_advertising.o(i.ble_advertising_init) refers to ble_advertising.o(.bss) for m_adv_modes_config
    ble_advertising.o(i.ble_advertising_on_ble_evt) refers to ble_advertising.o(i.ble_advertising_start) for ble_advertising_start
    ble_advertising.o(i.ble_advertising_on_ble_evt) refers to ble_advertising.o(i.peer_address_exists) for peer_address_exists
    ble_advertising.o(i.ble_advertising_on_ble_evt) refers to ble_advertising.o(.data) for current_slave_link_conn_handle
    ble_advertising.o(i.ble_advertising_on_ble_evt) refers to ble_advertising.o(.bss) for m_adv_modes_config
    ble_advertising.o(i.ble_advertising_on_sys_evt) refers to ble_advertising.o(i.ble_advertising_start) for ble_advertising_start
    ble_advertising.o(i.ble_advertising_on_sys_evt) refers to ble_advertising.o(.data) for m_advertising_start_pending
    ble_advertising.o(i.ble_advertising_peer_addr_reply) refers to ble_advertising.o(.data) for m_peer_addr_reply_expected
    ble_advertising.o(i.ble_advertising_peer_address_clear) refers to rt_memclr.o(.text) for __aeabi_memclr
    ble_advertising.o(i.ble_advertising_peer_address_clear) refers to ble_advertising.o(.data) for m_peer_address
    ble_advertising.o(i.ble_advertising_restart_without_whitelist) refers to ble_advertising.o(i.ble_advertising_start) for ble_advertising_start
    ble_advertising.o(i.ble_advertising_restart_without_whitelist) refers to ble_advertising.o(.bss) for m_adv_modes_config
    ble_advertising.o(i.ble_advertising_restart_without_whitelist) refers to ble_advertising.o(.data) for m_whitelist_temporarily_disabled
    ble_advertising.o(i.ble_advertising_start) refers to pstorage.o(i.pstorage_access_status_get) for pstorage_access_status_get
    ble_advertising.o(i.ble_advertising_start) refers to ble_advertising.o(i.ble_advertising_peer_address_clear) for ble_advertising_peer_address_clear
    ble_advertising.o(i.ble_advertising_start) refers to ble_advertising.o(i.peer_address_exists) for peer_address_exists
    ble_advertising.o(i.ble_advertising_start) refers to rt_memclr.o(.text) for __aeabi_memclr4
    ble_advertising.o(i.ble_advertising_start) refers to ble_advertising.o(i.whitelist_has_entries) for whitelist_has_entries
    ble_advertising.o(i.ble_advertising_start) refers to ble_advdata.o(i.ble_advdata_set) for ble_advdata_set
    ble_advertising.o(i.ble_advertising_start) refers to ble_advertising.o(.data) for m_adv_mode_current
    ble_advertising.o(i.ble_advertising_start) refers to ble_advertising.o(.bss) for m_adv_modes_config
    ble_advertising.o(i.ble_advertising_whitelist_reply) refers to ble_advertising.o(.data) for m_whitelist_reply_expected
    ble_advertising.o(i.ble_advertising_whitelist_reply) refers to ble_advertising.o(.bss) for m_whitelist
    ble_conn_params.o(i.ble_conn_params_change_conn_params) refers to rt_memcpy.o(.text) for __aeabi_memcpy
    ble_conn_params.o(i.ble_conn_params_change_conn_params) refers to ble_conn_params.o(i.is_conn_params_ok) for is_conn_params_ok
    ble_conn_params.o(i.ble_conn_params_change_conn_params) refers to ble_conn_params.o(.data) for m_preferred_conn_params
    ble_conn_params.o(i.ble_conn_params_change_conn_params) refers to ble_conn_params.o(.bss) for m_conn_params_config
    ble_conn_params.o(i.ble_conn_params_init) refers to rt_memcpy.o(.emb_text) for __aeabi_memcpy4
    ble_conn_params.o(i.ble_conn_params_init) refers to rt_memcpy.o(.text) for __aeabi_memcpy
    ble_conn_params.o(i.ble_conn_params_init) refers to app_timer.o(i.app_timer_create) for app_timer_create
    ble_conn_params.o(i.ble_conn_params_init) refers to ble_conn_params.o(.bss) for m_conn_params_config
    ble_conn_params.o(i.ble_conn_params_init) refers to ble_conn_params.o(.data) for m_change_param
    ble_conn_params.o(i.ble_conn_params_init) refers to ble_conn_params.o(i.update_timeout_handler) for update_timeout_handler
    ble_conn_params.o(i.ble_conn_params_on_ble_evt) refers to ble_conn_params.o(i.on_connect) for on_connect
    ble_conn_params.o(i.ble_conn_params_on_ble_evt) refers to ble_conn_params.o(i.on_disconnect) for on_disconnect
    ble_conn_params.o(i.ble_conn_params_on_ble_evt) refers to ble_conn_params.o(i.on_write) for on_write
    ble_conn_params.o(i.ble_conn_params_on_ble_evt) refers to ble_conn_params.o(i.on_conn_params_update) for on_conn_params_update
    ble_conn_params.o(i.ble_conn_params_stop) refers to app_timer.o(i.app_timer_stop) for app_timer_stop
    ble_conn_params.o(i.ble_conn_params_stop) refers to ble_conn_params.o(.data) for m_conn_params_timer_id
    ble_conn_params.o(i.conn_params_negotiation) refers to ble_conn_params.o(i.is_conn_params_ok) for is_conn_params_ok
    ble_conn_params.o(i.conn_params_negotiation) refers to app_timer.o(i.app_timer_start) for app_timer_start
    ble_conn_params.o(i.conn_params_negotiation) refers to ble_conn_params.o(.data) for m_current_conn_params
    ble_conn_params.o(i.conn_params_negotiation) refers to ble_conn_params.o(.bss) for m_conn_params_config
    ble_conn_params.o(i.is_conn_params_ok) refers to ble_conn_params.o(.data) for m_preferred_conn_params
    ble_conn_params.o(i.on_conn_params_update) refers to rt_memcpy.o(.text) for __aeabi_memcpy
    ble_conn_params.o(i.on_conn_params_update) refers to ble_conn_params.o(i.conn_params_negotiation) for conn_params_negotiation
    ble_conn_params.o(i.on_conn_params_update) refers to ble_conn_params.o(.data) for m_current_conn_params
    ble_conn_params.o(i.on_connect) refers to rt_memcpy.o(.text) for __aeabi_memcpy
    ble_conn_params.o(i.on_connect) refers to ble_conn_params.o(i.conn_params_negotiation) for conn_params_negotiation
    ble_conn_params.o(i.on_connect) refers to ble_conn_params.o(.data) for m_conn_handle
    ble_conn_params.o(i.on_connect) refers to ble_conn_params.o(.bss) for m_conn_params_config
    ble_conn_params.o(i.on_disconnect) refers to app_timer.o(i.app_timer_stop) for app_timer_stop
    ble_conn_params.o(i.on_disconnect) refers to ble_conn_params.o(.data) for m_conn_handle
    ble_conn_params.o(i.on_disconnect) refers to ble_conn_params.o(.bss) for m_conn_params_config
    ble_conn_params.o(i.on_write) refers to ble_conn_params.o(i.conn_params_negotiation) for conn_params_negotiation
    ble_conn_params.o(i.on_write) refers to app_timer.o(i.app_timer_stop) for app_timer_stop
    ble_conn_params.o(i.on_write) refers to ble_conn_params.o(.bss) for m_conn_params_config
    ble_conn_params.o(i.on_write) refers to ble_conn_params.o(.data) for m_conn_params_timer_id
    ble_conn_params.o(i.update_timeout_handler) refers to ble_conn_params.o(.data) for m_conn_handle
    ble_conn_params.o(i.update_timeout_handler) refers to ble_conn_params.o(.bss) for m_conn_params_config
    ble_debug_assert_handler.o(i.ble_debug_assert_handler) refers to strncpy.o(.text) for strncpy
    ble_debug_assert_handler.o(i.ble_debug_assert_handler) refers to ble_debug_assert_handler.o(.bss) for s_file_name
    ble_debug_assert_handler.o(i.ble_debug_assert_handler) refers to ble_debug_assert_handler.o(.data) for s_line_num
    ble_error_log.o(i.ble_error_log_write) refers to strncpy.o(.text) for strncpy
    ble_error_log.o(i.ble_error_log_write) refers to ble_error_log.o(i.fetch_stack) for fetch_stack
    ble_error_log.o(i.ble_error_log_write) refers to ble_error_log.o(.bss) for m_ble_error_log
    ble_error_log.o(i.fetch_stack) refers to rt_memcpy.o(.emb_text) for __aeabi_memcpy4
    ble_error_log.o(i.fetch_stack) refers to arm_startup_nrf51.o(RESET) for __Vectors
    ble_nus.o(i.ble_nus_init) refers to ble_nus.o(i.rx_char_add) for rx_char_add
    ble_nus.o(i.ble_nus_init) refers to ble_nus.o(i.tx_char_add) for tx_char_add
    ble_nus.o(i.ble_nus_init) refers to ble_nus.o(.constdata) for .constdata
    ble_nus.o(i.ble_nus_on_ble_evt) refers to ble_nus.o(i.on_connect) for on_connect
    ble_nus.o(i.ble_nus_on_ble_evt) refers to ble_nus.o(i.on_disconnect) for on_disconnect
    ble_nus.o(i.ble_nus_on_ble_evt) refers to ble_nus.o(i.on_write) for on_write
    ble_nus.o(i.rx_char_add) refers to rt_memclr.o(.text) for __aeabi_memclr4
    ble_nus.o(i.tx_char_add) refers to rt_memclr.o(.text) for __aeabi_memclr4
    ble_srv_common.o(i.ble_srv_ascii_to_utf8) refers to strlen.o(.text) for strlen
    ble_srv_common.o(i.ble_srv_report_ref_encode) refers to main.o(i.app_error_handler) for app_error_handler
    device_manager_peripheral.o(i.app_evt_notify) refers to device_manager_peripheral.o(.bss) for m_application_table
    device_manager_peripheral.o(i.bond_data_load) refers to pstorage.o(i.pstorage_block_identifier_get) for pstorage_block_identifier_get
    device_manager_peripheral.o(i.bond_data_load) refers to pstorage.o(i.pstorage_load) for pstorage_load
    device_manager_peripheral.o(i.bond_data_load) refers to device_manager_peripheral.o(.data) for m_storage_handle
    device_manager_peripheral.o(i.bond_data_load) refers to device_manager_peripheral.o(.bss) for m_bond_table
    device_manager_peripheral.o(i.bond_data_load) refers to device_manager_peripheral.o(.constdata) for m_service_context_load
    device_manager_peripheral.o(i.connection_instance_find) refers to device_manager_peripheral.o(.bss) for m_connection_table
    device_manager_peripheral.o(i.connection_instance_init) refers to rt_memclr.o(.text) for __aeabi_memclr
    device_manager_peripheral.o(i.connection_instance_init) refers to device_manager_peripheral.o(.bss) for m_connection_table
    device_manager_peripheral.o(i.device_context_store) refers to pstorage.o(i.pstorage_block_identifier_get) for pstorage_block_identifier_get
    device_manager_peripheral.o(i.device_context_store) refers to device_manager_peripheral.o(.data) for m_storage_handle
    device_manager_peripheral.o(i.device_context_store) refers to device_manager_peripheral.o(.bss) for m_connection_table
    device_manager_peripheral.o(i.device_context_store) refers to pstorage.o(i.pstorage_update) for pstorage_update
    device_manager_peripheral.o(i.device_context_store) refers to pstorage.o(i.pstorage_store) for pstorage_store
    device_manager_peripheral.o(i.device_context_store) refers to device_manager_peripheral.o(i.storage_operation_dummy_handler) for storage_operation_dummy_handler
    device_manager_peripheral.o(i.device_context_store) refers to device_manager_peripheral.o(.constdata) for m_service_context_store
    device_manager_peripheral.o(i.device_instance_allocate) refers to rt_memcpy.o(.text) for __aeabi_memcpy
    device_manager_peripheral.o(i.device_instance_allocate) refers to device_manager_peripheral.o(.bss) for m_peer_table
    device_manager_peripheral.o(i.device_instance_find) refers to memcmp.o(.text) for memcmp
    device_manager_peripheral.o(i.device_instance_find) refers to device_manager_peripheral.o(.bss) for m_peer_table
    device_manager_peripheral.o(i.device_instance_free) refers to pstorage.o(i.pstorage_block_identifier_get) for pstorage_block_identifier_get
    device_manager_peripheral.o(i.device_instance_free) refers to pstorage.o(i.pstorage_clear) for pstorage_clear
    device_manager_peripheral.o(i.device_instance_free) refers to device_manager_peripheral.o(i.peer_instance_init) for peer_instance_init
    device_manager_peripheral.o(i.device_instance_free) refers to device_manager_peripheral.o(.data) for m_storage_handle
    device_manager_peripheral.o(i.dm_application_instance_set) refers to device_manager_peripheral.o(.data) for m_module_initialized
    device_manager_peripheral.o(i.dm_application_instance_set) refers to device_manager_peripheral.o(.bss) for m_application_table
    device_manager_peripheral.o(i.dm_ble_evt_handler) refers to device_manager_peripheral.o(i.dm_handle_initialize) for dm_handle_initialize
    device_manager_peripheral.o(i.dm_ble_evt_handler) refers to main.o(i.app_error_handler) for app_error_handler
    device_manager_peripheral.o(i.dm_ble_evt_handler) refers to device_manager_peripheral.o(i.connection_instance_find) for connection_instance_find
    device_manager_peripheral.o(i.dm_ble_evt_handler) refers to rt_memcpy.o(.text) for __aeabi_memcpy
    device_manager_peripheral.o(i.dm_ble_evt_handler) refers to device_manager_peripheral.o(i.device_instance_find) for device_instance_find
    device_manager_peripheral.o(i.dm_ble_evt_handler) refers to device_manager_peripheral.o(i.bond_data_load) for bond_data_load
    device_manager_peripheral.o(i.dm_ble_evt_handler) refers to device_manager_peripheral.o(i.device_context_store) for device_context_store
    device_manager_peripheral.o(i.dm_ble_evt_handler) refers to device_manager_peripheral.o(i.peer_instance_init) for peer_instance_init
    device_manager_peripheral.o(i.dm_ble_evt_handler) refers to device_manager_peripheral.o(i.device_instance_allocate) for device_instance_allocate
    device_manager_peripheral.o(i.dm_ble_evt_handler) refers to rt_memclr.o(.text) for __aeabi_memclr4
    device_manager_peripheral.o(i.dm_ble_evt_handler) refers to device_manager_peripheral.o(i.device_instance_free) for device_instance_free
    device_manager_peripheral.o(i.dm_ble_evt_handler) refers to device_manager_peripheral.o(.data) for m_module_initialized
    device_manager_peripheral.o(i.dm_ble_evt_handler) refers to device_manager_peripheral.o(.bss) for m_application_table
    device_manager_peripheral.o(i.dm_ble_evt_handler) refers to device_manager_peripheral.o(i.app_evt_notify) for app_evt_notify
    device_manager_peripheral.o(i.dm_ble_evt_handler) refers to device_manager_peripheral.o(i.connection_instance_init) for connection_instance_init
    device_manager_peripheral.o(i.dm_ble_evt_handler) refers to device_manager_peripheral.o(.constdata) for m_service_context_apply
    device_manager_peripheral.o(i.dm_device_delete) refers to device_manager_peripheral.o(i.device_instance_free) for device_instance_free
    device_manager_peripheral.o(i.dm_device_delete) refers to device_manager_peripheral.o(.data) for m_module_initialized
    device_manager_peripheral.o(i.dm_device_delete) refers to device_manager_peripheral.o(.bss) for m_application_table
    device_manager_peripheral.o(i.dm_device_delete_all) refers to device_manager_peripheral.o(i.device_instance_free) for device_instance_free
    device_manager_peripheral.o(i.dm_device_delete_all) refers to device_manager_peripheral.o(.data) for m_module_initialized
    device_manager_peripheral.o(i.dm_device_delete_all) refers to device_manager_peripheral.o(.bss) for m_application_table
    device_manager_peripheral.o(i.dm_distributed_keys_get) refers to pstorage.o(i.pstorage_block_identifier_get) for pstorage_block_identifier_get
    device_manager_peripheral.o(i.dm_distributed_keys_get) refers to pstorage.o(i.pstorage_load) for pstorage_load
    device_manager_peripheral.o(i.dm_distributed_keys_get) refers to device_manager_peripheral.o(.data) for m_module_initialized
    device_manager_peripheral.o(i.dm_distributed_keys_get) refers to device_manager_peripheral.o(.bss) for m_application_table
    device_manager_peripheral.o(i.dm_handle_get) refers to device_manager_peripheral.o(.bss) for m_application_table
    device_manager_peripheral.o(i.dm_init) refers to device_manager_peripheral.o(i.connection_instance_init) for connection_instance_init
    device_manager_peripheral.o(i.dm_init) refers to rt_memclr.o(.text) for __aeabi_memclr4
    device_manager_peripheral.o(i.dm_init) refers to device_manager_peripheral.o(i.peer_instance_init) for peer_instance_init
    device_manager_peripheral.o(i.dm_init) refers to pstorage.o(i.pstorage_register) for pstorage_register
    device_manager_peripheral.o(i.dm_init) refers to pstorage.o(i.pstorage_block_identifier_get) for pstorage_block_identifier_get
    device_manager_peripheral.o(i.dm_init) refers to pstorage.o(i.pstorage_load) for pstorage_load
    device_manager_peripheral.o(i.dm_init) refers to pstorage.o(i.pstorage_clear) for pstorage_clear
    device_manager_peripheral.o(i.dm_init) refers to device_manager_peripheral.o(.bss) for m_application_table
    device_manager_peripheral.o(i.dm_init) refers to device_manager_peripheral.o(.data) for m_irk_index_table
    device_manager_peripheral.o(i.dm_init) refers to device_manager_peripheral.o(i.dm_pstorage_cb_handler) for dm_pstorage_cb_handler
    device_manager_peripheral.o(i.dm_peer_addr_get) refers to rt_memcpy.o(.text) for __aeabi_memcpy
    device_manager_peripheral.o(i.dm_peer_addr_get) refers to device_manager_peripheral.o(.data) for m_module_initialized
    device_manager_peripheral.o(i.dm_peer_addr_get) refers to device_manager_peripheral.o(.bss) for m_application_table
    device_manager_peripheral.o(i.dm_peer_addr_set) refers to rt_memcpy.o(.text) for __aeabi_memcpy
    device_manager_peripheral.o(i.dm_peer_addr_set) refers to device_manager_peripheral.o(i.device_context_store) for device_context_store
    device_manager_peripheral.o(i.dm_peer_addr_set) refers to device_manager_peripheral.o(.data) for m_module_initialized
    device_manager_peripheral.o(i.dm_peer_addr_set) refers to device_manager_peripheral.o(.bss) for m_application_table
    device_manager_peripheral.o(i.dm_pstorage_cb_handler) refers to device_manager_peripheral.o(i.dm_handle_initialize) for dm_handle_initialize
    device_manager_peripheral.o(i.dm_pstorage_cb_handler) refers to main.o(i.app_error_handler) for app_error_handler
    device_manager_peripheral.o(i.dm_pstorage_cb_handler) refers to pstorage.o(i.pstorage_block_identifier_get) for pstorage_block_identifier_get
    device_manager_peripheral.o(i.dm_pstorage_cb_handler) refers to memcmp.o(.text) for memcmp
    device_manager_peripheral.o(i.dm_pstorage_cb_handler) refers to aeabi_sdiv.o(.text) for __aeabi_uidivmod
    device_manager_peripheral.o(i.dm_pstorage_cb_handler) refers to device_manager_peripheral.o(i.update_status_bit_reset) for update_status_bit_reset
    device_manager_peripheral.o(i.dm_pstorage_cb_handler) refers to rt_memclr.o(.text) for __aeabi_memclr4
    device_manager_peripheral.o(i.dm_pstorage_cb_handler) refers to device_manager_peripheral.o(i.app_evt_notify) for app_evt_notify
    device_manager_peripheral.o(i.dm_pstorage_cb_handler) refers to device_manager_peripheral.o(.bss) for m_application_table
    device_manager_peripheral.o(i.dm_pstorage_cb_handler) refers to device_manager_peripheral.o(.data) for m_storage_handle
    device_manager_peripheral.o(i.dm_register) refers to rt_memcpy.o(.text) for __aeabi_memcpy
    device_manager_peripheral.o(i.dm_register) refers to device_manager_peripheral.o(.data) for m_module_initialized
    device_manager_peripheral.o(i.dm_register) refers to device_manager_peripheral.o(.bss) for m_application_table
    device_manager_peripheral.o(i.dm_security_setup_req) refers to device_manager_peripheral.o(.data) for m_module_initialized
    device_manager_peripheral.o(i.dm_security_setup_req) refers to device_manager_peripheral.o(.bss) for m_application_table
    device_manager_peripheral.o(i.dm_security_status_req) refers to device_manager_peripheral.o(.data) for m_module_initialized
    device_manager_peripheral.o(i.dm_security_status_req) refers to device_manager_peripheral.o(.bss) for m_application_table
    device_manager_peripheral.o(i.dm_service_context_delete) refers to device_manager_peripheral.o(.data) for m_module_initialized
    device_manager_peripheral.o(i.dm_service_context_delete) refers to device_manager_peripheral.o(.bss) for m_application_table
    device_manager_peripheral.o(i.dm_service_context_get) refers to pstorage.o(i.pstorage_block_identifier_get) for pstorage_block_identifier_get
    device_manager_peripheral.o(i.dm_service_context_get) refers to device_manager_peripheral.o(.data) for m_module_initialized
    device_manager_peripheral.o(i.dm_service_context_get) refers to device_manager_peripheral.o(.bss) for m_application_table
    device_manager_peripheral.o(i.dm_service_context_get) refers to device_manager_peripheral.o(.constdata) for m_service_context_load
    device_manager_peripheral.o(i.dm_service_context_set) refers to rt_memcpy.o(.text) for __aeabi_memcpy
    device_manager_peripheral.o(i.dm_service_context_set) refers to pstorage.o(i.pstorage_block_identifier_get) for pstorage_block_identifier_get
    device_manager_peripheral.o(i.dm_service_context_set) refers to device_manager_peripheral.o(.data) for m_module_initialized
    device_manager_peripheral.o(i.dm_service_context_set) refers to device_manager_peripheral.o(.bss) for m_application_table
    device_manager_peripheral.o(i.dm_service_context_set) refers to device_manager_peripheral.o(.constdata) for m_service_context_store
    device_manager_peripheral.o(i.dm_whitelist_create) refers to device_manager_peripheral.o(.data) for m_module_initialized
    device_manager_peripheral.o(i.dm_whitelist_create) refers to device_manager_peripheral.o(.bss) for m_application_table
    device_manager_peripheral.o(i.gatts_context_apply) refers to device_manager_peripheral.o(.bss) for m_gatts_table
    device_manager_peripheral.o(i.gatts_context_load) refers to pstorage.o(i.pstorage_load) for pstorage_load
    device_manager_peripheral.o(i.gatts_context_load) refers to device_manager_peripheral.o(.bss) for m_gatts_table
    device_manager_peripheral.o(i.gatts_context_store) refers to memcmp.o(.text) for memcmp
    device_manager_peripheral.o(i.gatts_context_store) refers to rt_memclr.o(.text) for __aeabi_memclr4
    device_manager_peripheral.o(i.gatts_context_store) refers to rt_memcpy.o(.emb_text) for __aeabi_memcpy4
    device_manager_peripheral.o(i.gatts_context_store) refers to device_manager_peripheral.o(.bss) for m_connection_table
    device_manager_peripheral.o(i.gatts_context_store) refers to pstorage.o(i.pstorage_update) for pstorage_update
    device_manager_peripheral.o(i.gatts_context_store) refers to pstorage.o(i.pstorage_store) for pstorage_store
    device_manager_peripheral.o(i.gattsc_context_apply) refers to device_manager_peripheral.o(i.gatts_context_apply) for gatts_context_apply
    device_manager_peripheral.o(i.gattsc_context_load) refers to device_manager_peripheral.o(i.gatts_context_load) for gatts_context_load
    device_manager_peripheral.o(i.gattsc_context_store) refers to device_manager_peripheral.o(i.gatts_context_store) for gatts_context_store
    device_manager_peripheral.o(i.peer_instance_init) refers to rt_memclr.o(.text) for __aeabi_memclr
    device_manager_peripheral.o(i.peer_instance_init) refers to device_manager_peripheral.o(i.update_status_bit_reset) for update_status_bit_reset
    device_manager_peripheral.o(i.peer_instance_init) refers to device_manager_peripheral.o(.bss) for m_peer_table
    device_manager_peripheral.o(i.update_status_bit_reset) refers to device_manager_peripheral.o(.data) for m_peer_addr_update
    device_manager_peripheral.o(.constdata) refers to device_manager_peripheral.o(i.no_service_context_store) for no_service_context_store
    device_manager_peripheral.o(.constdata) refers to device_manager_peripheral.o(i.gatts_context_store) for gatts_context_store
    device_manager_peripheral.o(.constdata) refers to device_manager_peripheral.o(i.gattc_context_store) for gattc_context_store
    device_manager_peripheral.o(.constdata) refers to device_manager_peripheral.o(i.gattsc_context_store) for gattsc_context_store
    device_manager_peripheral.o(.constdata) refers to device_manager_peripheral.o(i.no_service_context_load) for no_service_context_load
    device_manager_peripheral.o(.constdata) refers to device_manager_peripheral.o(i.gatts_context_load) for gatts_context_load
    device_manager_peripheral.o(.constdata) refers to device_manager_peripheral.o(i.gattc_context_load) for gattc_context_load
    device_manager_peripheral.o(.constdata) refers to device_manager_peripheral.o(i.gattsc_context_load) for gattsc_context_load
    device_manager_peripheral.o(.constdata) refers to device_manager_peripheral.o(i.no_service_context_apply) for no_service_context_apply
    device_manager_peripheral.o(.constdata) refers to device_manager_peripheral.o(i.gatts_context_apply) for gatts_context_apply
    device_manager_peripheral.o(.constdata) refers to device_manager_peripheral.o(i.gattc_context_apply) for gattc_context_apply
    device_manager_peripheral.o(.constdata) refers to device_manager_peripheral.o(i.gattsc_context_apply) for gattsc_context_apply
    app_uart.o(i.UART0_IRQHandler) refers to app_uart.o(i.on_uart_event) for on_uart_event
    app_uart.o(i.UART0_IRQHandler) refers to app_uart.o(.data) for m_rx_byte
    app_uart.o(i.action_tx_ready) refers to app_uart.o(i.action_tx_stop) for action_tx_stop
    app_uart.o(i.action_tx_send) refers to app_uart.o(.data) for m_current_state
    app_uart.o(i.action_tx_stop) refers to app_uart.o(.data) for m_current_state
    app_uart.o(i.action_uart_deactivate) refers to app_uart.o(.data) for m_current_state
    app_uart.o(i.app_uart_close) refers to app_uart.o(i.on_uart_event) for on_uart_event
    app_uart.o(i.app_uart_close) refers to app_gpiote.o(i.app_gpiote_user_disable) for app_gpiote_user_disable
    app_uart.o(i.app_uart_close) refers to app_uart.o(.data) for m_gpiote_uid
    app_uart.o(i.app_uart_get) refers to app_uart.o(.data) for m_rx_byte
    app_uart.o(i.app_uart_get_connection_state) refers to app_uart.o(.data) for m_current_state
    app_uart.o(i.app_uart_init) refers to app_uart.o(i.nrf_gpio_cfg_output) for nrf_gpio_cfg_output
    app_uart.o(i.app_uart_init) refers to app_gpiote.o(i.app_gpiote_user_register) for app_gpiote_user_register
    app_uart.o(i.app_uart_init) refers to app_gpiote.o(i.app_gpiote_pins_state_get) for app_gpiote_pins_state_get
    app_uart.o(i.app_uart_init) refers to app_gpiote.o(i.app_gpiote_user_enable) for app_gpiote_user_enable
    app_uart.o(i.app_uart_init) refers to app_uart.o(i.on_uart_event) for on_uart_event
    app_uart.o(i.app_uart_init) refers to app_uart.o(i.uart_standard_flow_control_init) for uart_standard_flow_control_init
    app_uart.o(i.app_uart_init) refers to app_uart.o(i.uart_no_flow_control_init) for uart_no_flow_control_init
    app_uart.o(i.app_uart_init) refers to app_uart.o(i.NVIC_SetPriority) for NVIC_SetPriority
    app_uart.o(i.app_uart_init) refers to app_uart.o(.data) for m_current_state
    app_uart.o(i.app_uart_init) refers to app_uart.o(i.gpiote_uart_event_handler) for gpiote_uart_event_handler
    app_uart.o(i.app_uart_put) refers to app_uart.o(i.on_uart_event) for on_uart_event
    app_uart.o(i.app_uart_put) refers to app_uart.o(.data) for m_current_state
    app_uart.o(i.gpiote_uart_event_handler) refers to app_gpiote.o(i.app_gpiote_pins_state_get) for app_gpiote_pins_state_get
    app_uart.o(i.gpiote_uart_event_handler) refers to app_uart.o(i.on_uart_event) for on_uart_event
    app_uart.o(i.gpiote_uart_event_handler) refers to app_uart.o(.data) for m_pin_cts_mask
    app_uart.o(i.on_cts_high) refers to app_uart.o(i.action_uart_deactivate) for action_uart_deactivate
    app_uart.o(i.on_cts_high) refers to app_uart.o(.data) for m_current_state
    app_uart.o(i.on_cts_low) refers to app_uart.o(.data) for m_current_state
    app_uart.o(i.on_tx_ready) refers to app_uart.o(i.action_uart_deactivate) for action_uart_deactivate
    app_uart.o(i.on_tx_ready) refers to app_uart.o(i.action_tx_ready) for action_tx_ready
    app_uart.o(i.on_tx_ready) refers to app_uart.o(.data) for m_current_state
    app_uart.o(i.on_uart_close) refers to app_uart.o(i.action_uart_deactivate) for action_uart_deactivate
    app_uart.o(i.on_uart_event) refers to inv_mpu.o(i.__ARM_common_switch8) for __ARM_common_switch8
    app_uart.o(i.on_uart_event) refers to app_uart.o(i.on_cts_high) for on_cts_high
    app_uart.o(i.on_uart_event) refers to app_uart.o(i.on_cts_low) for on_cts_low
    app_uart.o(i.on_uart_event) refers to app_uart.o(i.on_tx_ready) for on_tx_ready
    app_uart.o(i.on_uart_event) refers to app_uart.o(i.on_uart_put) for on_uart_put
    app_uart.o(i.on_uart_event) refers to app_uart.o(i.on_uart_close) for on_uart_close
    app_uart.o(i.on_uart_put) refers to app_uart.o(i.action_tx_send) for action_tx_send
    app_uart.o(i.on_uart_put) refers to app_uart.o(.data) for m_current_state
    ble_flash.o(i.ble_flash_block_write) refers to ble_flash.o(i.flash_word_write) for flash_word_write
    ble_flash.o(i.ble_flash_on_radio_active_evt) refers to ble_flash.o(.data) for m_radio_active
    ble_flash.o(i.ble_flash_page_erase) refers to ble_flash.o(i.flash_page_erase) for flash_page_erase
    ble_flash.o(i.ble_flash_page_read) refers to rt_memcpy.o(.emb_text) for __aeabi_memcpy4
    ble_flash.o(i.ble_flash_page_read) refers to ble_flash.o(i.ble_flash_crc16_compute) for ble_flash_crc16_compute
    ble_flash.o(i.ble_flash_page_write) refers to ble_flash.o(i.ble_flash_crc16_compute) for ble_flash_crc16_compute
    ble_flash.o(i.ble_flash_page_write) refers to ble_flash.o(i.flash_page_erase) for flash_page_erase
    ble_flash.o(i.ble_flash_page_write) refers to ble_flash.o(i.flash_word_unprotected_write) for flash_word_unprotected_write
    ble_flash.o(i.ble_flash_page_write) refers to ble_flash.o(i.flash_word_write) for flash_word_write
    ble_flash.o(i.ble_flash_word_write) refers to ble_flash.o(i.flash_word_write) for flash_word_write
    ble_flash.o(i.flash_word_write) refers to ble_flash.o(.data) for m_radio_active
    pstorage.o(i.app_notify) refers to pstorage.o(.bss) for m_app_table
    pstorage.o(i.cmd_process) refers to pstorage.o(i.pstorage_flash_page_size) for pstorage_flash_page_size
    pstorage.o(i.cmd_process) refers to aeabi_sdiv.o(.text) for __aeabi_uidivmod
    pstorage.o(i.cmd_process) refers to pstorage.o(i.swap_state_process) for swap_state_process
    pstorage.o(i.cmd_process) refers to pstorage.o(.bss) for m_cmd_queue
    pstorage.o(i.cmd_process) refers to pstorage.o(.data) for m_round_val
    pstorage.o(i.cmd_queue_dequeue) refers to pstorage.o(i.cmd_process) for cmd_process
    pstorage.o(i.cmd_queue_dequeue) refers to pstorage.o(.bss) for m_cmd_queue
    pstorage.o(i.cmd_queue_element_init) refers to pstorage.o(.bss) for m_cmd_queue
    pstorage.o(i.cmd_queue_enqueue) refers to pstorage.o(i.cmd_process) for cmd_process
    pstorage.o(i.cmd_queue_enqueue) refers to pstorage.o(.bss) for m_cmd_queue
    pstorage.o(i.cmd_queue_init) refers to pstorage.o(i.cmd_queue_element_init) for cmd_queue_element_init
    pstorage.o(i.cmd_queue_init) refers to pstorage.o(.data) for m_round_val
    pstorage.o(i.cmd_queue_init) refers to pstorage.o(.bss) for m_cmd_queue
    pstorage.o(i.pstorage_access_status_get) refers to pstorage.o(.data) for m_module_initialized
    pstorage.o(i.pstorage_access_status_get) refers to pstorage.o(.bss) for m_cmd_queue
    pstorage.o(i.pstorage_block_identifier_get) refers to pstorage.o(.data) for m_module_initialized
    pstorage.o(i.pstorage_block_identifier_get) refers to pstorage.o(.bss) for m_app_table
    pstorage.o(i.pstorage_clear) refers to pstorage.o(i.is_word_aligned) for is_word_aligned
    pstorage.o(i.pstorage_clear) refers to aeabi_sdiv.o(.text) for __aeabi_uidivmod
    pstorage.o(i.pstorage_clear) refers to pstorage.o(i.cmd_queue_enqueue) for cmd_queue_enqueue
    pstorage.o(i.pstorage_clear) refers to pstorage.o(.data) for m_module_initialized
    pstorage.o(i.pstorage_clear) refers to pstorage.o(.bss) for m_app_table
    pstorage.o(i.pstorage_flash_page_end) refers to pstorage.o(i.pstorage_flash_page_size) for pstorage_flash_page_size
    pstorage.o(i.pstorage_flash_page_end) refers to aeabi_sdiv.o(.text) for __aeabi_uidivmod
    pstorage.o(i.pstorage_init) refers to pstorage.o(i.cmd_queue_init) for cmd_queue_init
    pstorage.o(i.pstorage_init) refers to pstorage.o(i.pstorage_flash_page_end) for pstorage_flash_page_end
    pstorage.o(i.pstorage_init) refers to pstorage.o(i.pstorage_flash_page_size) for pstorage_flash_page_size
    pstorage.o(i.pstorage_init) refers to aeabi_sdiv.o(.text) for __aeabi_uidivmod
    pstorage.o(i.pstorage_init) refers to pstorage.o(.data) for m_next_app_instance
    pstorage.o(i.pstorage_init) refers to pstorage.o(.bss) for m_app_table
    pstorage.o(i.pstorage_load) refers to pstorage.o(i.is_word_aligned) for is_word_aligned
    pstorage.o(i.pstorage_load) refers to rt_memcpy.o(.text) for __aeabi_memcpy
    pstorage.o(i.pstorage_load) refers to pstorage.o(.data) for m_module_initialized
    pstorage.o(i.pstorage_load) refers to pstorage.o(.bss) for m_app_table
    pstorage.o(i.pstorage_register) refers to pstorage.o(i.pstorage_flash_page_size) for pstorage_flash_page_size
    pstorage.o(i.pstorage_register) refers to pstorage.o(i.pstorage_flash_page_end) for pstorage_flash_page_end
    pstorage.o(i.pstorage_register) refers to aeabi_sdiv.o(.text) for __aeabi_idivmod
    pstorage.o(i.pstorage_register) refers to pstorage.o(.data) for m_module_initialized
    pstorage.o(i.pstorage_register) refers to pstorage.o(.bss) for m_app_table
    pstorage.o(i.pstorage_store) refers to pstorage.o(i.is_word_aligned) for is_word_aligned
    pstorage.o(i.pstorage_store) refers to pstorage.o(i.cmd_queue_enqueue) for cmd_queue_enqueue
    pstorage.o(i.pstorage_store) refers to pstorage.o(.data) for m_module_initialized
    pstorage.o(i.pstorage_store) refers to pstorage.o(.bss) for m_app_table
    pstorage.o(i.pstorage_sys_event_handler) refers to pstorage.o(i.cmd_queue_dequeue) for cmd_queue_dequeue
    pstorage.o(i.pstorage_sys_event_handler) refers to pstorage.o(i.app_notify) for app_notify
    pstorage.o(i.pstorage_sys_event_handler) refers to pstorage.o(i.cmd_queue_element_init) for cmd_queue_element_init
    pstorage.o(i.pstorage_sys_event_handler) refers to main.o(i.assert_nrf_callback) for assert_nrf_callback
    pstorage.o(i.pstorage_sys_event_handler) refers to pstorage.o(i.cmd_process) for cmd_process
    pstorage.o(i.pstorage_sys_event_handler) refers to pstorage.o(.bss) for m_cmd_queue
    pstorage.o(i.pstorage_sys_event_handler) refers to pstorage.o(.data) for m_swap_state
    pstorage.o(i.pstorage_update) refers to pstorage.o(i.is_word_aligned) for is_word_aligned
    pstorage.o(i.pstorage_update) refers to pstorage.o(i.cmd_queue_enqueue) for cmd_queue_enqueue
    pstorage.o(i.pstorage_update) refers to pstorage.o(.data) for m_module_initialized
    pstorage.o(i.pstorage_update) refers to pstorage.o(.bss) for m_app_table
    pstorage.o(i.swap_state_process) refers to inv_mpu.o(i.__ARM_common_switch8) for __ARM_common_switch8
    pstorage.o(i.swap_state_process) refers to pstorage.o(i.pstorage_flash_page_size) for pstorage_flash_page_size
    pstorage.o(i.swap_state_process) refers to pstorage.o(i.pstorage_flash_page_end) for pstorage_flash_page_end
    pstorage.o(i.swap_state_process) refers to aeabi_sdiv.o(.text) for __aeabi_uidivmod
    pstorage.o(i.swap_state_process) refers to pstorage.o(.data) for m_swap_state
    spi_master.o(i.SPI0_TWI0_IRQHandler) refers to spi_master.o(i.spi_master_get_instance) for spi_master_get_instance
    spi_master.o(i.SPI0_TWI0_IRQHandler) refers to spi_master.o(i.spi_master_send_recv_irq) for spi_master_send_recv_irq
    spi_master.o(i.SPI1_TWI1_IRQHandler) refers to spi_master.o(i.spi_master_get_instance) for spi_master_get_instance
    spi_master.o(i.SPI1_TWI1_IRQHandler) refers to spi_master.o(i.spi_master_send_recv_irq) for spi_master_send_recv_irq
    spi_master.o(i.spi_master_buffer_init) refers to main.o(i.app_error_handler) for app_error_handler
    spi_master.o(i.spi_master_buffer_release) refers to main.o(i.app_error_handler) for app_error_handler
    spi_master.o(i.spi_master_close) refers to spi_master.o(i.spi_master_get_instance) for spi_master_get_instance
    spi_master.o(i.spi_master_close) refers to main.o(i.app_error_handler) for app_error_handler
    spi_master.o(i.spi_master_close) refers to spi_master.o(i.nrf_gpio_pin_set) for nrf_gpio_pin_set
    spi_master.o(i.spi_master_close) refers to spi_master.o(i.nrf_gpio_cfg_input) for nrf_gpio_cfg_input
    spi_master.o(i.spi_master_close) refers to spi_master.o(i.spi_master_init_hw_instance) for spi_master_init_hw_instance
    spi_master.o(i.spi_master_get_instance) refers to spi_master.o(.bss) for m_spi_master_instances
    spi_master.o(i.spi_master_init_hw_instance) refers to main.o(i.app_error_handler) for app_error_handler
    spi_master.o(i.spi_master_open) refers to spi_master.o(i.spi_master_get_instance) for spi_master_get_instance
    spi_master.o(i.spi_master_open) refers to main.o(i.app_error_handler) for app_error_handler
    spi_master.o(i.spi_master_open) refers to spi_master.o(i.spi_master_init_hw_instance) for spi_master_init_hw_instance
    spi_master.o(i.spi_master_open) refers to spi_master.o(i.nrf_gpio_pin_set) for nrf_gpio_pin_set
    spi_master.o(i.spi_master_open) refers to spi_master.o(i.nrf_gpio_cfg_output) for nrf_gpio_cfg_output
    spi_master.o(i.spi_master_open) refers to spi_master.o(i.nrf_gpio_cfg_input) for nrf_gpio_cfg_input
    spi_master.o(i.spi_master_send_initial_bytes) refers to main.o(i.app_error_handler) for app_error_handler
    spi_master.o(i.spi_master_send_recv) refers to spi_master.o(i.spi_master_get_instance) for spi_master_get_instance
    spi_master.o(i.spi_master_send_recv) refers to main.o(i.app_error_handler) for app_error_handler
    spi_master.o(i.spi_master_send_recv) refers to spi_master.o(i.spi_master_buffer_init) for spi_master_buffer_init
    spi_master.o(i.spi_master_send_recv) refers to spi_master.o(i.spi_master_send_initial_bytes) for spi_master_send_initial_bytes
    spi_master.o(i.spi_master_send_recv_irq) refers to main.o(i.app_error_handler) for app_error_handler
    spi_master.o(i.spi_master_send_recv_irq) refers to spi_master.o(i.spi_master_signal_evt) for spi_master_signal_evt
    spi_master.o(i.spi_master_send_recv_irq) refers to spi_master.o(i.nrf_gpio_pin_set) for nrf_gpio_pin_set
    spi_master.o(i.spi_master_send_recv_irq) refers to spi_master.o(i.spi_master_buffer_release) for spi_master_buffer_release
    spi_master.o(i.spi_master_signal_evt) refers to main.o(i.app_error_handler) for app_error_handler
    spi_master.o(i.spi_master_signal_evt) refers to spi_master.o(.constdata) for .constdata
    twi_hw_master.o(i.twi_master_clear_bus) refers to twi_hw_master.o(.emb_text) for __asm___15_twi_hw_master_c_959ec897__nrf_delay_us
    twi_hw_master.o(i.twi_master_init) refers to twi_hw_master.o(i.twi_master_clear_bus) for twi_master_clear_bus
    twi_hw_master.o(i.twi_master_read) refers to twi_hw_master.o(.emb_text) for __asm___15_twi_hw_master_c_959ec897__nrf_delay_us
    twi_hw_master.o(i.twi_master_read) refers to twi_hw_master.o(i.twi_master_init) for twi_master_init
    twi_hw_master.o(i.twi_master_transfer) refers to twi_hw_master.o(i.twi_master_clear_bus) for twi_master_clear_bus
    twi_hw_master.o(i.twi_master_transfer) refers to twi_hw_master.o(i.twi_master_read) for twi_master_read
    twi_hw_master.o(i.twi_master_transfer) refers to twi_hw_master.o(i.twi_master_write) for twi_master_write
    twi_hw_master.o(i.twi_master_write) refers to twi_hw_master.o(.emb_text) for __asm___15_twi_hw_master_c_959ec897__nrf_delay_us
    twi_hw_master.o(i.twi_master_write) refers to twi_hw_master.o(i.twi_master_init) for twi_master_init
    nrf_adc.o(i.nrf_adc_configure) refers to nrf_adc.o(i.nrf_adc_input_select) for nrf_adc_input_select
    nrf_adc.o(i.nrf_adc_convert_single) refers to nrf_adc.o(i.nrf_adc_input_select) for nrf_adc_input_select
    nrf_delay.o(i.nrf_delay_ms) refers to nrf_delay.o(.emb_text) for __asm___11_nrf_delay_c_532987f3__nrf_delay_us
    app_button.o(i.app_button_disable) refers to app_gpiote.o(i.app_gpiote_user_disable) for app_gpiote_user_disable
    app_button.o(i.app_button_disable) refers to app_timer.o(i.app_timer_stop) for app_timer_stop
    app_button.o(i.app_button_disable) refers to app_button.o(.data) for mp_buttons
    app_button.o(i.app_button_enable) refers to app_gpiote.o(i.app_gpiote_user_enable) for app_gpiote_user_enable
    app_button.o(i.app_button_enable) refers to app_button.o(.data) for mp_buttons
    app_button.o(i.app_button_init) refers to app_gpiote.o(i.app_gpiote_user_register) for app_gpiote_user_register
    app_button.o(i.app_button_init) refers to app_timer.o(i.app_timer_create) for app_timer_create
    app_button.o(i.app_button_init) refers to app_button.o(.data) for mp_buttons
    app_button.o(i.app_button_init) refers to app_button.o(i.gpiote_event_handler) for gpiote_event_handler
    app_button.o(i.app_button_init) refers to app_button.o(i.detection_delay_timeout_handler) for detection_delay_timeout_handler
    app_button.o(i.app_button_is_pushed) refers to app_gpiote.o(i.app_gpiote_pins_state_get) for app_gpiote_pins_state_get
    app_button.o(i.app_button_is_pushed) refers to app_button.o(.data) for m_button_count
    app_button.o(i.detection_delay_timeout_handler) refers to app_gpiote.o(i.app_gpiote_pins_state_get) for app_gpiote_pins_state_get
    app_button.o(i.detection_delay_timeout_handler) refers to app_button.o(i.button_handler_execute) for button_handler_execute
    app_button.o(i.detection_delay_timeout_handler) refers to app_button.o(.data) for m_gpiote_user_id
    app_button.o(i.gpiote_event_handler) refers to app_timer.o(i.app_timer_stop) for app_timer_stop
    app_button.o(i.gpiote_event_handler) refers to app_timer.o(i.app_timer_start) for app_timer_start
    app_button.o(i.gpiote_event_handler) refers to app_button.o(.data) for m_detection_delay_timer_id
    app_gpiote.o(i.GPIOTE_IRQHandler) refers to app_gpiote.o(i.sense_level_toggle) for sense_level_toggle
    app_gpiote.o(i.GPIOTE_IRQHandler) refers to app_gpiote.o(.data) for mp_users
    app_gpiote.o(i.app_gpiote_init) refers to rt_memclr.o(.text) for __aeabi_memclr4
    app_gpiote.o(i.app_gpiote_init) refers to app_gpiote.o(i.NVIC_SetPriority) for NVIC_SetPriority
    app_gpiote.o(i.app_gpiote_init) refers to app_gpiote.o(.data) for mp_users
    app_gpiote.o(i.app_gpiote_pins_state_get) refers to app_gpiote.o(.data) for mp_users
    app_gpiote.o(i.app_gpiote_user_disable) refers to app_gpiote.o(i.pins_sense_disable) for pins_sense_disable
    app_gpiote.o(i.app_gpiote_user_disable) refers to app_gpiote.o(.data) for mp_users
    app_gpiote.o(i.app_gpiote_user_enable) refers to app_gpiote.o(.data) for mp_users
    app_gpiote.o(i.app_gpiote_user_register) refers to app_gpiote.o(i.pins_sense_disable) for pins_sense_disable
    app_gpiote.o(i.app_gpiote_user_register) refers to app_gpiote.o(.data) for mp_users
    app_gpiote.o(i.pins_sense_disable) refers to app_gpiote.o(.data) for mp_users
    app_scheduler.o(i.app_sched_event_get) refers to app_scheduler.o(i.next_index) for next_index
    app_scheduler.o(i.app_sched_event_get) refers to app_scheduler.o(.data) for m_queue_start_index
    app_scheduler.o(i.app_sched_event_put) refers to app_scheduler.o(i.current_int_priority_get) for current_int_priority_get
    app_scheduler.o(i.app_sched_event_put) refers to main.o(i.app_error_handler) for app_error_handler
    app_scheduler.o(i.app_sched_event_put) refers to app_scheduler.o(i.next_index) for next_index
    app_scheduler.o(i.app_sched_event_put) refers to rt_memcpy.o(.text) for __aeabi_memcpy
    app_scheduler.o(i.app_sched_event_put) refers to app_scheduler.o(.data) for m_queue_event_size
    app_scheduler.o(i.app_sched_execute) refers to app_scheduler.o(i.app_sched_event_get) for app_sched_event_get
    app_scheduler.o(i.app_sched_init) refers to app_scheduler.o(.data) for m_queue_event_headers
    app_scheduler.o(i.next_index) refers to app_scheduler.o(.data) for m_queue_size
    app_timer.o(i.RTC1_IRQHandler) refers to app_timer.o(i.timer_timeouts_check) for timer_timeouts_check
    app_timer.o(i.SWI0_IRQHandler) refers to app_timer.o(i.timer_list_handler) for timer_list_handler
    app_timer.o(i.app_timer_cnt_diff_compute) refers to app_timer.o(i.ticks_diff_get) for ticks_diff_get
    app_timer.o(i.app_timer_cnt_get) refers to app_timer.o(i.rtc1_counter_get) for rtc1_counter_get
    app_timer.o(i.app_timer_create) refers to app_timer.o(.data) for mp_nodes
    app_timer.o(i.app_timer_init) refers to app_timer.o(i.rtc1_stop) for rtc1_stop
    app_timer.o(i.app_timer_init) refers to app_timer.o(i.NVIC_ClearPendingIRQ) for NVIC_ClearPendingIRQ
    app_timer.o(i.app_timer_init) refers to app_timer.o(i.NVIC_SetPriority) for NVIC_SetPriority
    app_timer.o(i.app_timer_init) refers to app_timer.o(i.NVIC_EnableIRQ) for NVIC_EnableIRQ
    app_timer.o(i.app_timer_init) refers to app_timer.o(i.rtc1_init) for rtc1_init
    app_timer.o(i.app_timer_init) refers to app_timer.o(i.rtc1_counter_get) for rtc1_counter_get
    app_timer.o(i.app_timer_init) refers to app_timer.o(.data) for m_evt_schedule_func
    app_timer.o(i.app_timer_start) refers to app_timer.o(i.user_id_get) for user_id_get
    app_timer.o(i.app_timer_start) refers to app_timer.o(i.timer_start_op_schedule) for timer_start_op_schedule
    app_timer.o(i.app_timer_start) refers to app_timer.o(.data) for mp_nodes
    app_timer.o(i.app_timer_stop) refers to app_timer.o(i.user_id_get) for user_id_get
    app_timer.o(i.app_timer_stop) refers to app_timer.o(i.timer_stop_op_schedule) for timer_stop_op_schedule
    app_timer.o(i.app_timer_stop) refers to app_timer.o(.data) for mp_nodes
    app_timer.o(i.app_timer_stop_all) refers to app_timer.o(i.user_id_get) for user_id_get
    app_timer.o(i.app_timer_stop_all) refers to app_timer.o(i.timer_stop_all_op_schedule) for timer_stop_all_op_schedule
    app_timer.o(i.app_timer_stop_all) refers to app_timer.o(.data) for mp_nodes
    app_timer.o(i.compare_reg_update) refers to app_timer.o(i.rtc1_counter_get) for rtc1_counter_get
    app_timer.o(i.compare_reg_update) refers to app_timer.o(i.ticks_diff_get) for ticks_diff_get
    app_timer.o(i.compare_reg_update) refers to app_timer.o(i.rtc1_start) for rtc1_start
    app_timer.o(i.compare_reg_update) refers to app_timer.o(i.timer_timeouts_check_sched) for timer_timeouts_check_sched
    app_timer.o(i.compare_reg_update) refers to app_timer.o(i.rtc1_stop) for rtc1_stop
    app_timer.o(i.compare_reg_update) refers to app_timer.o(.data) for m_timer_id_head
    app_timer.o(i.elapsed_ticks_acquire) refers to app_timer.o(.data) for m_ticks_elapsed_q_read_ind
    app_timer.o(i.expired_timers_handler) refers to app_timer.o(.data) for m_timer_id_head
    app_timer.o(i.list_deletions_handler) refers to app_timer.o(i.timer_list_remove) for timer_list_remove
    app_timer.o(i.list_deletions_handler) refers to app_timer.o(.data) for m_timer_id_head
    app_timer.o(i.list_insertions_handler) refers to app_timer.o(i.ticks_diff_get) for ticks_diff_get
    app_timer.o(i.list_insertions_handler) refers to app_timer.o(i.timer_list_insert) for timer_list_insert
    app_timer.o(i.list_insertions_handler) refers to app_timer.o(.data) for m_timer_id_head
    app_timer.o(i.rtc1_init) refers to app_timer.o(i.NVIC_SetPriority) for NVIC_SetPriority
    app_timer.o(i.rtc1_start) refers to app_timer.o(i.NVIC_ClearPendingIRQ) for NVIC_ClearPendingIRQ
    app_timer.o(i.rtc1_start) refers to app_timer.o(i.NVIC_EnableIRQ) for NVIC_EnableIRQ
    app_timer.o(i.rtc1_start) refers to app_timer.o(.emb_text) for __asm___11_app_timer_c_cd27f9c3__nrf_delay_us
    app_timer.o(i.rtc1_start) refers to app_timer.o(.data) for m_rtc1_running
    app_timer.o(i.rtc1_stop) refers to app_timer.o(.emb_text) for __asm___11_app_timer_c_cd27f9c3__nrf_delay_us
    app_timer.o(i.rtc1_stop) refers to app_timer.o(.data) for m_ticks_latest
    app_timer.o(i.timeout_handler_exec) refers to main.o(i.app_error_handler) for app_error_handler
    app_timer.o(i.timeout_handler_exec) refers to app_timer.o(.data) for m_evt_schedule_func
    app_timer.o(i.timer_list_handler) refers to app_timer.o(i.elapsed_ticks_acquire) for elapsed_ticks_acquire
    app_timer.o(i.timer_list_handler) refers to app_timer.o(i.list_deletions_handler) for list_deletions_handler
    app_timer.o(i.timer_list_handler) refers to app_timer.o(i.expired_timers_handler) for expired_timers_handler
    app_timer.o(i.timer_list_handler) refers to app_timer.o(i.list_insertions_handler) for list_insertions_handler
    app_timer.o(i.timer_list_handler) refers to app_timer.o(i.compare_reg_update) for compare_reg_update
    app_timer.o(i.timer_list_handler) refers to app_timer.o(.data) for m_ticks_latest
    app_timer.o(i.timer_list_handler_sched) refers to app_timer.o(i.NVIC_SetPendingIRQ) for NVIC_SetPendingIRQ
    app_timer.o(i.timer_list_insert) refers to app_timer.o(.data) for mp_nodes
    app_timer.o(i.timer_list_remove) refers to app_timer.o(.data) for m_timer_id_head
    app_timer.o(i.timer_start_op_schedule) refers to app_timer.o(i.user_op_alloc) for user_op_alloc
    app_timer.o(i.timer_start_op_schedule) refers to app_timer.o(i.rtc1_counter_get) for rtc1_counter_get
    app_timer.o(i.timer_start_op_schedule) refers to app_timer.o(i.user_op_enque) for user_op_enque
    app_timer.o(i.timer_start_op_schedule) refers to app_timer.o(i.timer_list_handler_sched) for timer_list_handler_sched
    app_timer.o(i.timer_start_op_schedule) refers to app_timer.o(.data) for mp_users
    app_timer.o(i.timer_stop_all_op_schedule) refers to app_timer.o(i.user_op_alloc) for user_op_alloc
    app_timer.o(i.timer_stop_all_op_schedule) refers to app_timer.o(i.user_op_enque) for user_op_enque
    app_timer.o(i.timer_stop_all_op_schedule) refers to app_timer.o(i.timer_list_handler_sched) for timer_list_handler_sched
    app_timer.o(i.timer_stop_all_op_schedule) refers to app_timer.o(.data) for mp_users
    app_timer.o(i.timer_stop_op_schedule) refers to app_timer.o(i.user_op_alloc) for user_op_alloc
    app_timer.o(i.timer_stop_op_schedule) refers to app_timer.o(i.user_op_enque) for user_op_enque
    app_timer.o(i.timer_stop_op_schedule) refers to app_timer.o(i.timer_list_handler_sched) for timer_list_handler_sched
    app_timer.o(i.timer_stop_op_schedule) refers to app_timer.o(.data) for mp_users
    app_timer.o(i.timer_timeouts_check) refers to app_timer.o(i.rtc1_counter_get) for rtc1_counter_get
    app_timer.o(i.timer_timeouts_check) refers to app_timer.o(i.ticks_diff_get) for ticks_diff_get
    app_timer.o(i.timer_timeouts_check) refers to app_timer.o(i.timeout_handler_exec) for timeout_handler_exec
    app_timer.o(i.timer_timeouts_check) refers to app_timer.o(i.timer_list_handler_sched) for timer_list_handler_sched
    app_timer.o(i.timer_timeouts_check) refers to app_timer.o(.data) for m_timer_id_head
    app_timer.o(i.timer_timeouts_check_sched) refers to app_timer.o(i.NVIC_SetPendingIRQ) for NVIC_SetPendingIRQ
    app_timer.o(i.user_id_get) refers to app_timer.o(i.current_int_priority_get) for current_int_priority_get
    app_timer_appsh.o(i.app_timer_evt_get) refers to main.o(i.app_error_handler) for app_error_handler
    app_timer_appsh.o(i.app_timer_evt_schedule) refers to app_scheduler.o(i.app_sched_event_put) for app_sched_event_put
    app_timer_appsh.o(i.app_timer_evt_schedule) refers to app_timer_appsh.o(i.app_timer_evt_get) for app_timer_evt_get
    retarget.o(i.fgetc) refers to app_uart.o(i.app_uart_get) for app_uart_get
    retarget.o(i.fputc) refers to app_uart.o(i.app_uart_put) for app_uart_put
    softdevice_handler.o(i.SWI2_IRQHandler) refers to main.o(i.app_error_handler) for app_error_handler
    softdevice_handler.o(i.SWI2_IRQHandler) refers to softdevice_handler.o(i.intern_softdevice_events_execute) for intern_softdevice_events_execute
    softdevice_handler.o(i.SWI2_IRQHandler) refers to softdevice_handler.o(.data) for m_evt_schedule_func
    softdevice_handler.o(i.intern_softdevice_events_execute) refers to main.o(i.app_error_handler) for app_error_handler
    softdevice_handler.o(i.intern_softdevice_events_execute) refers to softdevice_handler.o(.data) for m_softdevice_enabled
    softdevice_handler.o(i.softdevice_assertion_handler) refers to main.o(i.assert_nrf_callback) for assert_nrf_callback
    softdevice_handler.o(i.softdevice_ble_evt_handler_set) refers to softdevice_handler.o(.data) for m_ble_evt_handler
    softdevice_handler.o(i.softdevice_handler_init) refers to softdevice_handler.o(.data) for mp_ble_evt_buffer
    softdevice_handler.o(i.softdevice_handler_init) refers to softdevice_handler.o(i.softdevice_assertion_handler) for softdevice_assertion_handler
    softdevice_handler.o(i.softdevice_handler_sd_disable) refers to softdevice_handler.o(.data) for m_softdevice_enabled
    softdevice_handler.o(i.softdevice_sys_evt_handler_set) refers to softdevice_handler.o(.data) for m_sys_evt_handler
    llsdiv.o(.text) refers to lludiv.o(.text) for __aeabi_uldivmod
    __2sprintf.o(.text) refers to _printf_char_common.o(.text) for _printf_char_common
    __2sprintf.o(.text) refers to _sputc.o(.text) for _sputc
    noretval__2sprintf.o(.text) refers to _printf_char_common.o(.text) for _printf_char_common
    noretval__2sprintf.o(.text) refers to _sputc.o(.text) for _sputc
    __printf.o(.text) refers to _printf_percent.o(.ARM.Collect$$_printf_percent$$00000000) for _printf_percent
    _printf_hex_ll.o(.text) refers to _printf_intcommon.o(.text) for _printf_int_common
    _printf_hex_ll.o(.text) refers to _printf_hex_ll.o(.constdata) for .constdata
    _printf_hex_int.o(.text) refers to _printf_intcommon.o(.text) for _printf_int_common
    _printf_hex_int.o(.text) refers to _printf_hex_int.o(.constdata) for .constdata
    _printf_hex_int_ll.o(.text) refers to _printf_intcommon.o(.text) for _printf_int_common
    _printf_hex_int_ll.o(.text) refers to _printf_hex_int_ll.o(.constdata) for .constdata
    _printf_hex_ptr.o(.text) refers to _printf_intcommon.o(.text) for _printf_int_common
    _printf_hex_ptr.o(.text) refers to _printf_hex_ptr.o(.constdata) for .constdata
    _printf_hex_int_ptr.o(.text) refers to _printf_intcommon.o(.text) for _printf_int_common
    _printf_hex_int_ptr.o(.text) refers to _printf_hex_int_ptr.o(.constdata) for .constdata
    _printf_hex_ll_ptr.o(.text) refers to _printf_intcommon.o(.text) for _printf_int_common
    _printf_hex_ll_ptr.o(.text) refers to _printf_hex_ll_ptr.o(.constdata) for .constdata
    _printf_hex_int_ll_ptr.o(.text) refers to _printf_intcommon.o(.text) for _printf_int_common
    _printf_hex_int_ll_ptr.o(.text) refers to _printf_hex_int_ll_ptr.o(.constdata) for .constdata
    __printf_flags.o(.text) refers to _printf_percent.o(.ARM.Collect$$_printf_percent$$00000000) for _printf_percent
    __printf_flags.o(.text) refers to __printf_flags.o(.constdata) for .constdata
    __printf_ss.o(.text) refers to _printf_percent.o(.ARM.Collect$$_printf_percent$$00000000) for _printf_percent
    __printf_flags_ss.o(.text) refers to _printf_percent.o(.ARM.Collect$$_printf_percent$$00000000) for _printf_percent
    __printf_flags_ss.o(.text) refers to __printf_flags_ss.o(.constdata) for .constdata
    __printf_wp.o(.text) refers to __printf_wp.o(i._is_digit) for _is_digit
    __printf_wp.o(.text) refers to _printf_percent.o(.ARM.Collect$$_printf_percent$$00000000) for _printf_percent
    __printf_flags_wp.o(.text) refers to __printf_wp.o(i._is_digit) for _is_digit
    __printf_flags_wp.o(.text) refers to _printf_percent.o(.ARM.Collect$$_printf_percent$$00000000) for _printf_percent
    __printf_flags_wp.o(.text) refers to __printf_flags_wp.o(.constdata) for .constdata
    __printf_ss_wp.o(.text) refers to __printf_wp.o(i._is_digit) for _is_digit
    __printf_ss_wp.o(.text) refers to _printf_percent.o(.ARM.Collect$$_printf_percent$$00000000) for _printf_percent
    __printf_flags_ss_wp.o(.text) refers to __printf_wp.o(i._is_digit) for _is_digit
    __printf_flags_ss_wp.o(.text) refers to _printf_percent.o(.ARM.Collect$$_printf_percent$$00000000) for _printf_percent
    __printf_flags_ss_wp.o(.text) refers to __printf_flags_ss_wp.o(.constdata) for .constdata
    _printf_x.o(.ARM.Collect$$_printf_percent$$0000000C) refers (Weak) to _printf_hex_int.o(.text) for _printf_int_hex
    _printf_percent.o(.ARM.Collect$$_printf_percent$$00000000) refers (Special) to _printf_percent_end.o(.ARM.Collect$$_printf_percent$$00000017) for _printf_percent_end
    rt_memcpy.o(.text) refers to rt_memcpy.o(.emb_text) for __aeabi_memcpy4
    strncpy.o(.text) refers to rt_memclr.o(.text) for __rt_memclr
    __main.o(!!!main) refers to __rtentry.o(.ARM.Collect$$rtentry$$00000000) for __rt_entry
    d2f.o(.text) refers (Special) to usenofp.o(x$fpl$usenofp) for __I$use$fp
    daddsub.o(.text) refers (Special) to usenofp.o(x$fpl$usenofp) for __I$use$fp
    ddiv.o(.text) refers (Special) to usenofp.o(x$fpl$usenofp) for __I$use$fp
    ddiv.o(.text) refers to ddiv.o(.constdata) for .constdata
    ddiv.o(.constdata) refers (Special) to usenofp.o(x$fpl$usenofp) for __I$use$fp
    dfixui.o(.text) refers (Special) to usenofp.o(x$fpl$usenofp) for __I$use$fp
    dflti.o(.text) refers (Special) to usenofp.o(x$fpl$usenofp) for __I$use$fp
    dlef.o(x$fpl$dleqf) refers (Special) to usenofp.o(x$fpl$usenofp) for __I$use$fp
    dlef.o(x$fpl$dleqf) refers to dcmpin.o(.text) for __fpl_dcmp_InfNaN
    dmul.o(.text) refers (Special) to usenofp.o(x$fpl$usenofp) for __I$use$fp
    drlef.o(x$fpl$drleqf) refers (Special) to usenofp.o(x$fpl$usenofp) for __I$use$fp
    drlef.o(x$fpl$drleqf) refers to dcmpin.o(.text) for __fpl_dcmp_InfNaN
    f2d.o(.text) refers (Special) to usenofp.o(x$fpl$usenofp) for __I$use$fp
    faddsub.o(x$fpl$fadd) refers (Special) to usenofp.o(x$fpl$usenofp) for __I$use$fp
    faddsub.o(x$fpl$fadd) refers to faddsub.o(x$fpl$fsub) for _fsub1
    faddsub.o(x$fpl$frsb) refers (Special) to usenofp.o(x$fpl$usenofp) for __I$use$fp
    faddsub.o(x$fpl$frsb) refers to faddsub.o(x$fpl$fsub) for _fsub1
    faddsub.o(x$fpl$frsb) refers to faddsub.o(x$fpl$fadd) for _fadd1
    faddsub.o(x$fpl$fsub) refers (Special) to usenofp.o(x$fpl$usenofp) for __I$use$fp
    faddsub.o(x$fpl$fsub) refers to faddsub.o(x$fpl$fadd) for _fadd1
    fdiv.o(.text) refers (Special) to usenofp.o(x$fpl$usenofp) for __I$use$fp
    fdiv.o(.text) refers to fdiv.o(.constdata) for .constdata
    fdiv.o(.constdata) refers (Special) to usenofp.o(x$fpl$usenofp) for __I$use$fp
    feqf.o(x$fpl$feqf) refers (Special) to usenofp.o(x$fpl$usenofp) for __I$use$fp
    feqf.o(x$fpl$feqf) refers to fcmpin.o(.text) for __fpl_fcmp_InfNaN
    ffixi.o(.text) refers (Special) to usenofp.o(x$fpl$usenofp) for __I$use$fp
    fflti.o(.text) refers (Special) to usenofp.o(x$fpl$usenofp) for __I$use$fp
    flef.o(x$fpl$fleqf) refers (Special) to usenofp.o(x$fpl$usenofp) for __I$use$fp
    flef.o(x$fpl$fleqf) refers to fcmpin.o(.text) for __fpl_fcmp_InfNaN
    fmul.o(x$fpl$fmul) refers (Special) to usenofp.o(x$fpl$usenofp) for __I$use$fp
    frlef.o(x$fpl$frleqf) refers (Special) to usenofp.o(x$fpl$usenofp) for __I$use$fp
    frlef.o(x$fpl$frleqf) refers to fcmpin.o(.text) for __fpl_fcmp_InfNaN
    pow.o(i.__softfp_pow) refers (Special) to usenofp.o(x$fpl$usenofp) for __I$use$fp
    pow.o(i.__softfp_pow) refers to pow.o(i.pow) for pow
    pow.o(i.pow) refers (Special) to usenofp.o(x$fpl$usenofp) for __I$use$fp
    pow.o(i.pow) refers to dunder.o(i.__mathlib_dbl_infnan2) for __mathlib_dbl_infnan2
    pow.o(i.pow) refers to _rserrno.o(.text) for __set_errno
    pow.o(i.pow) refers to dunder.o(i.__mathlib_dbl_divzero) for __mathlib_dbl_divzero
    pow.o(i.pow) refers to ddiv.o(.text) for __aeabi_ddiv
    pow.o(i.pow) refers to sqrt.o(i.sqrt) for sqrt
    pow.o(i.pow) refers to dflti.o(.text) for __aeabi_i2d
    pow.o(i.pow) refers to dunder.o(i.__mathlib_dbl_invalid) for __mathlib_dbl_invalid
    pow.o(i.pow) refers to dunder.o(i.__mathlib_dbl_overflow) for __mathlib_dbl_overflow
    pow.o(i.pow) refers to dmul.o(.text) for __aeabi_dmul
    pow.o(i.pow) refers to dunder.o(i.__mathlib_dbl_underflow) for __mathlib_dbl_underflow
    pow.o(i.pow) refers to daddsub.o(.text) for __aeabi_dsub
    pow.o(i.pow) refers to dscalbn.o(.text) for __ARM_scalbn
    pow.o(i.pow) refers to qnan.o(.constdata) for __mathlib_zero
    pow.o(i.pow) refers to poly.o(i.__kernel_poly) for __kernel_poly
    pow.o(i.pow) refers to drlef.o(x$fpl$drleqf) for __aeabi_cdrcmple
    pow.o(i.pow) refers to pow.o(.constdata) for .constdata
    pow.o(i.pow) refers to fpclassify.o(i.__ARM_fpclassify) for __ARM_fpclassify
    pow.o(.constdata) refers (Special) to usenofp.o(x$fpl$usenofp) for __I$use$fp
    pow_x.o(i.____softfp_pow$lsc) refers (Special) to usenofp.o(x$fpl$usenofp) for __I$use$fp
    pow_x.o(i.____softfp_pow$lsc) refers to pow_x.o(i.__pow$lsc) for __pow$lsc
    pow_x.o(i.__pow$lsc) refers (Special) to usenofp.o(x$fpl$usenofp) for __I$use$fp
    pow_x.o(i.__pow$lsc) refers to dunder.o(i.__mathlib_dbl_infnan2) for __mathlib_dbl_infnan2
    pow_x.o(i.__pow$lsc) refers to _rserrno.o(.text) for __set_errno
    pow_x.o(i.__pow$lsc) refers to ddiv.o(.text) for __aeabi_ddiv
    pow_x.o(i.__pow$lsc) refers to sqrt.o(i.sqrt) for sqrt
    pow_x.o(i.__pow$lsc) refers to dflti.o(.text) for __aeabi_i2d
    pow_x.o(i.__pow$lsc) refers to dmul.o(.text) for __aeabi_dmul
    pow_x.o(i.__pow$lsc) refers to daddsub.o(.text) for __aeabi_dsub
    pow_x.o(i.__pow$lsc) refers to dscalbn.o(.text) for __ARM_scalbn
    pow_x.o(i.__pow$lsc) refers to qnan.o(.constdata) for __mathlib_zero
    pow_x.o(i.__pow$lsc) refers to poly.o(i.__kernel_poly) for __kernel_poly
    pow_x.o(i.__pow$lsc) refers to drlef.o(x$fpl$drleqf) for __aeabi_cdrcmple
    pow_x.o(i.__pow$lsc) refers to pow_x.o(.constdata) for .constdata
    pow_x.o(.constdata) refers (Special) to usenofp.o(x$fpl$usenofp) for __I$use$fp
    sqrt.o(i.__softfp_sqrt) refers (Special) to usenofp.o(x$fpl$usenofp) for __I$use$fp
    sqrt.o(i.__softfp_sqrt) refers to dsqrt.o(.text) for _dsqrt
    sqrt.o(i.__softfp_sqrt) refers to _rserrno.o(.text) for __set_errno
    sqrt.o(i.sqrt) refers (Special) to usenofp.o(x$fpl$usenofp) for __I$use$fp
    sqrt.o(i.sqrt) refers to dsqrt.o(.text) for _dsqrt
    sqrt.o(i.sqrt) refers to _rserrno.o(.text) for __set_errno
    sqrt_x.o(i.____softfp_sqrt$lsc) refers (Special) to usenofp.o(x$fpl$usenofp) for __I$use$fp
    sqrt_x.o(i.____softfp_sqrt$lsc) refers to dlef.o(x$fpl$dleqf) for __aeabi_cdcmple
    sqrt_x.o(i.____softfp_sqrt$lsc) refers to _rserrno.o(.text) for __set_errno
    sqrt_x.o(i.____softfp_sqrt$lsc) refers to dsqrt.o(.text) for _dsqrt
    sqrt_x.o(i.__sqrt$lsc) refers (Special) to usenofp.o(x$fpl$usenofp) for __I$use$fp
    sqrt_x.o(i.__sqrt$lsc) refers to dlef.o(x$fpl$dleqf) for __aeabi_cdcmple
    sqrt_x.o(i.__sqrt$lsc) refers to _rserrno.o(.text) for __set_errno
    sqrt_x.o(i.__sqrt$lsc) refers to dsqrt.o(.text) for _dsqrt
    __rtentry.o(.ARM.Collect$$rtentry$$00000000) refers (Special) to __rtentry2.o(.ARM.Collect$$rtentry$$0000000A) for __rt_entry_li
    __rtentry.o(.ARM.Collect$$rtentry$$00000000) refers (Special) to __rtentry2.o(.ARM.Collect$$rtentry$$0000000D) for __rt_entry_main
    __rtentry.o(.ARM.Collect$$rtentry$$00000000) refers (Special) to __rtentry2.o(.ARM.Collect$$rtentry$$0000000C) for __rt_entry_postli_1
    __rtentry.o(.ARM.Collect$$rtentry$$00000000) refers (Special) to __rtentry2.o(.ARM.Collect$$rtentry$$00000009) for __rt_entry_postsh_1
    __rtentry.o(.ARM.Collect$$rtentry$$00000000) refers (Special) to __rtentry2.o(.ARM.Collect$$rtentry$$00000002) for __rt_entry_presh_1
    __rtentry.o(.ARM.Collect$$rtentry$$00000000) refers (Special) to __rtentry4.o(.ARM.Collect$$rtentry$$00000004) for __rt_entry_sh
    aeabi_idiv0_sigfpe.o(.text) refers to rt_div0.o(.text) for __rt_div0
    _rserrno.o(.text) refers to rt_errno_addr_intlibspace.o(.text) for __aeabi_errno_addr
    _printf_intcommon.o(.text) refers (Weak) to _printf_pad.o(.text) for _printf_pre_padding
    _printf_intcommon.o(.text) refers (Weak) to _printf_pad.o(.text) for _printf_pre_padding
    _printf_intcommon.o(.text) refers (Weak) to _printf_pad.o(.text) for _printf_post_padding
    _printf_char_common.o(.text) refers to __printf_flags_wp.o(.text) for __printf
    dcmpin.o(.text) refers (Special) to usenofp.o(x$fpl$usenofp) for __I$use$fp
    dcmpin.o(.text) refers to cmpret.o(.text) for __fpl_cmpreturn
    dcmpin.o(.text) refers to dnan2.o(.text) for __fpl_dcheck_NaN2
    dscalbn.o(.text) refers (Special) to usenofp.o(x$fpl$usenofp) for __I$use$fp
    dsqrt.o(.text) refers (Special) to usenofp.o(x$fpl$usenofp) for __I$use$fp
    fcmpin.o(.text) refers (Special) to usenofp.o(x$fpl$usenofp) for __I$use$fp
    fcmpin.o(.text) refers to cmpret.o(.text) for __fpl_cmpreturn
    fcmpin.o(.text) refers to fnan2.o(.text) for __fpl_fcheck_NaN2
    dunder.o(i.__mathlib_dbl_divzero) refers to ddiv.o(.text) for __aeabi_ddiv
    dunder.o(i.__mathlib_dbl_infnan) refers to dscalbn.o(.text) for __ARM_scalbn
    dunder.o(i.__mathlib_dbl_infnan2) refers to daddsub.o(.text) for __aeabi_dadd
    dunder.o(i.__mathlib_dbl_invalid) refers to ddiv.o(.text) for __aeabi_ddiv
    dunder.o(i.__mathlib_dbl_overflow) refers to dscalbn.o(.text) for __ARM_scalbn
    dunder.o(i.__mathlib_dbl_posinfnan) refers to dmul.o(.text) for __aeabi_dmul
    dunder.o(i.__mathlib_dbl_underflow) refers to dscalbn.o(.text) for __ARM_scalbn
    fpclassify.o(i.__ARM_fpclassify) refers (Special) to usenofp.o(x$fpl$usenofp) for __I$use$fp
    poly.o(i.__kernel_poly) refers (Special) to usenofp.o(x$fpl$usenofp) for __I$use$fp
    poly.o(i.__kernel_poly) refers to dmul.o(.text) for __aeabi_dmul
    poly.o(i.__kernel_poly) refers to daddsub.o(.text) for __aeabi_dadd
    qnan.o(.constdata) refers (Special) to usenofp.o(x$fpl$usenofp) for __I$use$fp
    __rtentry2.o(.ARM.Collect$$rtentry$$00000008) refers to boardinit2.o(.text) for _platform_post_stackheap_init
    __rtentry2.o(.ARM.Collect$$rtentry$$0000000A) refers to libinit.o(.ARM.Collect$$libinit$$00000000) for __rt_lib_init
    __rtentry2.o(.ARM.Collect$$rtentry$$0000000B) refers to boardinit3.o(.text) for _platform_post_lib_init
    __rtentry2.o(.ARM.Collect$$rtentry$$0000000D) refers to main.o(i.main) for main
    __rtentry2.o(.ARM.Collect$$rtentry$$0000000D) refers to exit.o(.text) for exit
    __rtentry2.o(.ARM.exidx) refers to __rtentry2.o(.ARM.Collect$$rtentry$$00000001) for .ARM.Collect$$rtentry$$00000001
    __rtentry2.o(.ARM.exidx) refers to __rtentry2.o(.ARM.Collect$$rtentry$$00000008) for .ARM.Collect$$rtentry$$00000008
    __rtentry2.o(.ARM.exidx) refers to __rtentry2.o(.ARM.Collect$$rtentry$$0000000A) for .ARM.Collect$$rtentry$$0000000A
    __rtentry2.o(.ARM.exidx) refers to __rtentry2.o(.ARM.Collect$$rtentry$$0000000B) for .ARM.Collect$$rtentry$$0000000B
    __rtentry2.o(.ARM.exidx) refers to __rtentry2.o(.ARM.Collect$$rtentry$$0000000D) for .ARM.Collect$$rtentry$$0000000D
    __rtentry4.o(.ARM.Collect$$rtentry$$00000004) refers to sys_stackheap_outer.o(.text) for __user_setup_stackheap
    __rtentry4.o(.ARM.exidx) refers to __rtentry4.o(.ARM.Collect$$rtentry$$00000004) for .ARM.Collect$$rtentry$$00000004
    rt_div0.o(.text) refers to defsig_fpe_outer.o(.text) for __rt_SIGFPE
    aeabi_ldiv0_sigfpe.o(.text) refers to rt_div0.o(.text) for __rt_div0
    rt_errno_addr.o(.text) refers to rt_errno_addr.o(.bss) for __aeabi_errno_addr_data
    rt_errno_addr_intlibspace.o(.text) refers to libspace.o(.bss) for __libspace_start
    cmpret.o(.text) refers (Special) to usenofp.o(x$fpl$usenofp) for __I$use$fp
    dnan2.o(.text) refers (Special) to usenofp.o(x$fpl$usenofp) for __I$use$fp
    dnan2.o(.text) refers to retnan.o(.text) for __fpl_return_NaN
    fnan2.o(.text) refers (Special) to usenofp.o(x$fpl$usenofp) for __I$use$fp
    fnan2.o(.text) refers to retnan.o(.text) for __fpl_return_NaN
    libspace.o(.text) refers to libspace.o(.bss) for __libspace_start
    sys_stackheap_outer.o(.text) refers to libspace.o(.text) for __user_perproc_libspace
    sys_stackheap_outer.o(.text) refers to arm_startup_nrf51.o(.text) for __user_initial_stackheap
    sys_stackheap_outer.o(__vectab_stack_and_reset_area) refers to tempstk.o(.text) for __temporary_stack_top
    sys_stackheap_outer.o(__vectab_stack_and_reset_area) refers to __main.o(!!!main) for __main
    exit.o(.text) refers to rtexit.o(.ARM.Collect$$rtexit$$00000000) for __rt_exit
    defsig_fpe_outer.o(.text) refers to defsig_fpe_inner.o(.text) for __rt_SIGFPE_inner
    defsig_fpe_outer.o(.text) refers to defsig_exit.o(.text) for __sig_exit
    defsig_fpe_formal.o(.text) refers to rt_raise.o(.text) for __rt_raise
    libinit.o(.ARM.Collect$$libinit$$00000000) refers (Special) to libinit2.o(.ARM.Collect$$libinit$$0000002E) for __rt_lib_init_alloca_1
    libinit.o(.ARM.Collect$$libinit$$00000000) refers (Special) to libinit2.o(.ARM.Collect$$libinit$$0000002C) for __rt_lib_init_argv_1
    libinit.o(.ARM.Collect$$libinit$$00000000) refers (Special) to libinit2.o(.ARM.Collect$$libinit$$0000001B) for __rt_lib_init_atexit_1
    libinit.o(.ARM.Collect$$libinit$$00000000) refers (Special) to libinit2.o(.ARM.Collect$$libinit$$00000021) for __rt_lib_init_clock_1
    libinit.o(.ARM.Collect$$libinit$$00000000) refers (Special) to libinit2.o(.ARM.Collect$$libinit$$00000032) for __rt_lib_init_cpp_1
    libinit.o(.ARM.Collect$$libinit$$00000000) refers (Special) to libinit2.o(.ARM.Collect$$libinit$$00000030) for __rt_lib_init_exceptions_1
    libinit.o(.ARM.Collect$$libinit$$00000000) refers (Special) to libinit2.o(.ARM.Collect$$libinit$$00000002) for __rt_lib_init_fp_1
    libinit.o(.ARM.Collect$$libinit$$00000000) refers (Special) to libinit2.o(.ARM.Collect$$libinit$$0000001F) for __rt_lib_init_fp_trap_1
    libinit.o(.ARM.Collect$$libinit$$00000000) refers (Special) to libinit2.o(.ARM.Collect$$libinit$$00000023) for __rt_lib_init_getenv_1
    libinit.o(.ARM.Collect$$libinit$$00000000) refers (Special) to libinit2.o(.ARM.Collect$$libinit$$0000000A) for __rt_lib_init_heap_1
    libinit.o(.ARM.Collect$$libinit$$00000000) refers (Special) to libinit2.o(.ARM.Collect$$libinit$$00000011) for __rt_lib_init_lc_collate_1
    libinit.o(.ARM.Collect$$libinit$$00000000) refers (Special) to libinit2.o(.ARM.Collect$$libinit$$00000013) for __rt_lib_init_lc_ctype_1
    libinit.o(.ARM.Collect$$libinit$$00000000) refers (Special) to libinit2.o(.ARM.Collect$$libinit$$00000015) for __rt_lib_init_lc_monetary_1
    libinit.o(.ARM.Collect$$libinit$$00000000) refers (Special) to libinit2.o(.ARM.Collect$$libinit$$00000017) for __rt_lib_init_lc_numeric_1
    libinit.o(.ARM.Collect$$libinit$$00000000) refers (Special) to libinit2.o(.ARM.Collect$$libinit$$00000019) for __rt_lib_init_lc_time_1
    libinit.o(.ARM.Collect$$libinit$$00000000) refers (Special) to libinit2.o(.ARM.Collect$$libinit$$00000004) for __rt_lib_init_preinit_1
    libinit.o(.ARM.Collect$$libinit$$00000000) refers (Special) to libinit2.o(.ARM.Collect$$libinit$$0000000E) for __rt_lib_init_rand_1
    libinit.o(.ARM.Collect$$libinit$$00000000) refers (Special) to libinit2.o(.ARM.Collect$$libinit$$00000033) for __rt_lib_init_return
    libinit.o(.ARM.Collect$$libinit$$00000000) refers (Special) to libinit2.o(.ARM.Collect$$libinit$$0000001D) for __rt_lib_init_signal_1
    libinit.o(.ARM.Collect$$libinit$$00000000) refers (Special) to libinit2.o(.ARM.Collect$$libinit$$00000025) for __rt_lib_init_stdio_1
    libinit.o(.ARM.Collect$$libinit$$00000000) refers (Special) to libinit2.o(.ARM.Collect$$libinit$$0000000C) for __rt_lib_init_user_alloc_1
    retnan.o(.text) refers (Special) to usenofp.o(x$fpl$usenofp) for __I$use$fp
    retnan.o(.text) refers to cmpret.o(.text) for __fpl_cmpreturn
    rtexit.o(.ARM.Collect$$rtexit$$00000000) refers (Special) to rtexit2.o(.ARM.Collect$$rtexit$$00000004) for __rt_exit_exit
    rtexit.o(.ARM.Collect$$rtexit$$00000000) refers (Special) to rtexit2.o(.ARM.Collect$$rtexit$$00000003) for __rt_exit_ls
    rtexit.o(.ARM.Collect$$rtexit$$00000000) refers (Special) to rtexit2.o(.ARM.Collect$$rtexit$$00000002) for __rt_exit_prels_1
    rtexit.o(.ARM.exidx) refers (Special) to rtexit2.o(.ARM.Collect$$rtexit$$00000004) for __rt_exit_exit
    rtexit.o(.ARM.exidx) refers (Special) to rtexit2.o(.ARM.Collect$$rtexit$$00000003) for __rt_exit_ls
    rtexit.o(.ARM.exidx) refers (Special) to rtexit2.o(.ARM.Collect$$rtexit$$00000002) for __rt_exit_prels_1
    rtexit.o(.ARM.exidx) refers to rtexit.o(.ARM.Collect$$rtexit$$00000000) for .ARM.Collect$$rtexit$$00000000
    rt_raise.o(.text) refers to __raise.o(.text) for __raise
    rt_raise.o(.text) refers to sys_exit.o(.text) for _sys_exit
    defsig_exit.o(.text) refers to sys_exit.o(.text) for _sys_exit
    defsig_fpe_inner.o(.text) refers to defsig_general.o(.text) for __default_signal_display
    libinit2.o(.ARM.Collect$$libinit$$00000010) refers to libinit2.o(.ARM.Collect$$libinit$$0000000F) for .ARM.Collect$$libinit$$0000000F
    libinit2.o(.ARM.Collect$$libinit$$00000012) refers to libinit2.o(.ARM.Collect$$libinit$$0000000F) for .ARM.Collect$$libinit$$0000000F
    libinit2.o(.ARM.Collect$$libinit$$00000014) refers to libinit2.o(.ARM.Collect$$libinit$$0000000F) for .ARM.Collect$$libinit$$0000000F
    libinit2.o(.ARM.Collect$$libinit$$00000016) refers to libinit2.o(.ARM.Collect$$libinit$$0000000F) for .ARM.Collect$$libinit$$0000000F
    libinit2.o(.ARM.Collect$$libinit$$00000018) refers to libinit2.o(.ARM.Collect$$libinit$$0000000F) for .ARM.Collect$$libinit$$0000000F
    libinit2.o(.ARM.Collect$$libinit$$00000026) refers to argv_veneer.o(.text) for __ARM_argv_veneer
    libinit2.o(.ARM.Collect$$libinit$$00000027) refers to argv_veneer.o(.text) for __ARM_argv_veneer
    sys_exit.o(.text) refers (Special) to use_no_semi.o(.text) for __I$use$semihosting
    sys_exit.o(.text) refers (Special) to indicate_semi.o(.text) for __semihosting_library_function
    rtexit2.o(.ARM.Collect$$rtexit$$00000003) refers to libshutdown.o(.ARM.Collect$$libshutdown$$00000000) for __rt_lib_shutdown
    rtexit2.o(.ARM.Collect$$rtexit$$00000004) refers to sys_exit.o(.text) for _sys_exit
    rtexit2.o(.ARM.exidx) refers to rtexit2.o(.ARM.Collect$$rtexit$$00000001) for .ARM.Collect$$rtexit$$00000001
    rtexit2.o(.ARM.exidx) refers to rtexit2.o(.ARM.Collect$$rtexit$$00000003) for .ARM.Collect$$rtexit$$00000003
    rtexit2.o(.ARM.exidx) refers to rtexit2.o(.ARM.Collect$$rtexit$$00000004) for .ARM.Collect$$rtexit$$00000004
    __raise.o(.text) refers to defsig.o(CL$$defsig) for __default_signal_handler
    defsig_general.o(.text) refers to sys_wrch.o(.text) for _ttywrch
    sys_wrch.o(.text) refers (Special) to use_no_semi.o(.text) for __I$use$semihosting
    sys_wrch.o(.text) refers (Special) to indicate_semi.o(.text) for __semihosting_library_function
    defsig.o(CL$$defsig) refers to defsig_fpe_inner.o(.text) for __rt_SIGFPE_inner
    defsig.o(CL$$defsig) refers to defsig_rtmem_inner.o(.text) for __rt_SIGRTMEM_inner
    _get_argv_nomalloc.o(.text) refers (Special) to hrguard.o(.text) for __heap_region$guard
    _get_argv_nomalloc.o(.text) refers to defsig_rtmem_outer.o(.text) for __rt_SIGRTMEM
    _get_argv_nomalloc.o(.text) refers to sys_command.o(.text) for _sys_command_string
    libshutdown.o(.ARM.Collect$$libshutdown$$00000000) refers (Special) to libshutdown2.o(.ARM.Collect$$libshutdown$$00000002) for __rt_lib_shutdown_cpp_1
    libshutdown.o(.ARM.Collect$$libshutdown$$00000000) refers (Special) to libshutdown2.o(.ARM.Collect$$libshutdown$$00000007) for __rt_lib_shutdown_fp_trap_1
    libshutdown.o(.ARM.Collect$$libshutdown$$00000000) refers (Special) to libshutdown2.o(.ARM.Collect$$libshutdown$$0000000F) for __rt_lib_shutdown_heap_1
    libshutdown.o(.ARM.Collect$$libshutdown$$00000000) refers (Special) to libshutdown2.o(.ARM.Collect$$libshutdown$$00000010) for __rt_lib_shutdown_return
    libshutdown.o(.ARM.Collect$$libshutdown$$00000000) refers (Special) to libshutdown2.o(.ARM.Collect$$libshutdown$$0000000A) for __rt_lib_shutdown_signal_1
    libshutdown.o(.ARM.Collect$$libshutdown$$00000000) refers (Special) to libshutdown2.o(.ARM.Collect$$libshutdown$$00000004) for __rt_lib_shutdown_stdio_1
    libshutdown.o(.ARM.Collect$$libshutdown$$00000000) refers (Special) to libshutdown2.o(.ARM.Collect$$libshutdown$$0000000C) for __rt_lib_shutdown_user_alloc_1
    sys_command.o(.text) refers (Special) to use_no_semi.o(.text) for __I$use$semihosting
    sys_command.o(.text) refers (Special) to indicate_semi.o(.text) for __semihosting_library_function
    defsig_abrt_inner.o(.text) refers to defsig_general.o(.text) for __default_signal_display
    defsig_rtred_inner.o(.text) refers to defsig_general.o(.text) for __default_signal_display
    defsig_rtmem_inner.o(.text) refers to defsig_general.o(.text) for __default_signal_display
    defsig_rtmem_outer.o(.text) refers to defsig_rtmem_inner.o(.text) for __rt_SIGRTMEM_inner
    defsig_rtmem_outer.o(.text) refers to defsig_exit.o(.text) for __sig_exit
    defsig_rtmem_formal.o(.text) refers to rt_raise.o(.text) for __rt_raise
    defsig_stak_inner.o(.text) refers to defsig_general.o(.text) for __default_signal_display
    defsig_pvfn_inner.o(.text) refers to defsig_general.o(.text) for __default_signal_display
    defsig_cppl_inner.o(.text) refers to defsig_general.o(.text) for __default_signal_display
    defsig_segv_inner.o(.text) refers to defsig_general.o(.text) for __default_signal_display
    defsig_other.o(.text) refers to defsig_general.o(.text) for __default_signal_display
    spi_master.o(i.spi_master_get_state) refers to spi_master.o(i.spi_master_get_instance) for spi_master_get_instance
    spi_master.o(i.spi_master_get_state) refers to main.o(i.app_error_handler) for app_error_handler
    spi_master.o(i.spi_master_evt_handler_reg) refers to spi_master.o(i.spi_master_get_instance) for spi_master_get_instance
    spi_master.o(i.spi_master_evt_handler_reg) refers to main.o(i.app_error_handler) for app_error_handler


==============================================================================

Removing Unused input sections from the image.

    Removing main.o(.rev16_text), (4 bytes).
    Removing main.o(.revsh_text), (4 bytes).
    Removing main.o(.emb_text), (30 bytes).
    Removing main.o(i.blockSend), (60 bytes).
    Removing main.o(i.nus_data_handler), (44 bytes).
    Removing main.o(i.readNRF_TEMP), (96 bytes).
    Removing ble_ad7746.o(.bss), (36 bytes).
    Removing ad7746.o(.rev16_text), (4 bytes).
    Removing ad7746.o(.revsh_text), (4 bytes).
    Removing ad7746.o(i.AD7746_GetCapData), (72 bytes).
    Removing ad7746.o(i.AD7746_GetVTData), (72 bytes).
    Removing ad7746.o(i.AD7746_Init), (236 bytes).
    Removing ad7746.o(i.AD7746_Read), (44 bytes).
    Removing ad7746.o(i.AD7746_Reset), (30 bytes).
    Removing ad7746.o(i.AD7746_Write), (64 bytes).
    Removing ad7746.o(i.AD7746_getConfig), (120 bytes).
    Removing communication.o(.rev16_text), (4 bytes).
    Removing communication.o(.revsh_text), (4 bytes).
    Removing sensoradc.o(.rev16_text), (4 bytes).
    Removing sensoradc.o(.revsh_text), (4 bytes).
    Removing sensoradc.o(i.NVIC_SetPriority), (120 bytes).
    Removing sensoradc.o(i.sensorADC_config), (56 bytes).
    Removing sensoradc.o(i.sensorADC_singleMeasure), (24 bytes).
    Removing sensoradc.o(i.sensorADC_startSequenceMeasure), (148 bytes).
    Removing sensoradc.o(.constdata), (8 bytes).
    Removing ds2401.o(.rev16_text), (4 bytes).
    Removing ds2401.o(.revsh_text), (4 bytes).
    Removing mpu_9150.o(.rev16_text), (4 bytes).
    Removing mpu_9150.o(.revsh_text), (4 bytes).
    Removing mpu_9150.o(i.MPU9150SelfTest), (684 bytes).
    Removing mpu_9150.o(i.MPU9150_readByte_), (28 bytes).
    Removing mpu_9150.o(i.MadgwickQuaternionUpdate), (3444 bytes).
    Removing mpu_9150.o(i.MahonyQuaternionUpdate), (1888 bytes).
    Removing mpu_9150.o(i.calibrateMPU9150), (1048 bytes).
    Removing mpu_9150.o(i.getAres), (76 bytes).
    Removing mpu_9150.o(i.getGres), (84 bytes).
    Removing mpu_9150.o(i.readAccelData), (66 bytes).
    Removing mpu_9150.o(i.readAccelFloatMG), (56 bytes).
    Removing mpu_9150.o(i.readGyroData), (66 bytes).
    Removing mpu_9150.o(i.readGyroFloatDeg), (56 bytes).
    Removing mpu_9150.o(i.readQuaternion), (88 bytes).
    Removing mpu_9150.o(i.readTempData), (28 bytes).
    Removing inv_mpu.o(.rev16_text), (4 bytes).
    Removing inv_mpu.o(.revsh_text), (4 bytes).
    Removing inv_mpu.o(.emb_text), (30 bytes).
    Removing inv_mpu.o(i.accel_6500_self_test), (540 bytes).
    Removing inv_mpu.o(i.compass_self_test), (332 bytes).
    Removing inv_mpu.o(i.delay_ms), (18 bytes).
    Removing inv_mpu.o(i.get_ms), (12 bytes).
    Removing inv_mpu.o(i.get_st_6500_biases), (1424 bytes).
    Removing inv_mpu.o(i.get_st_biases), (1212 bytes).
    Removing inv_mpu.o(i.gyro_6500_self_test), (496 bytes).
    Removing inv_mpu.o(i.i2c_read), (28 bytes).
    Removing inv_mpu.o(i.i2c_read_), (100 bytes).
    Removing inv_mpu.o(i.i2c_write), (42 bytes).
    Removing inv_mpu.o(i.i2c_write_), (60 bytes).
    Removing inv_mpu.o(i.i2c_write_one), (22 bytes).
    Removing inv_mpu.o(i.mpu_configure_fifo), (128 bytes).
    Removing inv_mpu.o(i.mpu_get_accel_fsr), (80 bytes).
    Removing inv_mpu.o(i.mpu_get_accel_reg), (120 bytes).
    Removing inv_mpu.o(i.mpu_get_accel_sens), (88 bytes).
    Removing inv_mpu.o(i.mpu_get_compass_fsr), (20 bytes).
    Removing inv_mpu.o(i.mpu_get_compass_reg), (224 bytes).
    Removing inv_mpu.o(i.mpu_get_compass_sample_rate), (16 bytes).
    Removing inv_mpu.o(i.mpu_get_dmp_state), (16 bytes).
    Removing inv_mpu.o(i.mpu_get_fifo_config), (16 bytes).
    Removing inv_mpu.o(i.mpu_get_gyro_fsr), (72 bytes).
    Removing inv_mpu.o(i.mpu_get_gyro_reg), (120 bytes).
    Removing inv_mpu.o(i.mpu_get_gyro_sens), (80 bytes).
    Removing inv_mpu.o(i.mpu_get_int_status), (68 bytes).
    Removing inv_mpu.o(i.mpu_get_lpf), (80 bytes).
    Removing inv_mpu.o(i.mpu_get_power_state), (28 bytes).
    Removing inv_mpu.o(i.mpu_get_sample_rate), (32 bytes).
    Removing inv_mpu.o(i.mpu_get_temperature), (160 bytes).
    Removing inv_mpu.o(i.mpu_init), (340 bytes).
    Removing inv_mpu.o(i.mpu_load_firmware), (192 bytes).
    Removing inv_mpu.o(i.mpu_lp_accel_mode), (292 bytes).
    Removing inv_mpu.o(i.mpu_lp_motion_interrupt), (636 bytes).
    Removing inv_mpu.o(i.mpu_read_6050_accel_bias), (136 bytes).
    Removing inv_mpu.o(i.mpu_read_6500_accel_bias), (136 bytes).
    Removing inv_mpu.o(i.mpu_read_6500_gyro_bias), (136 bytes).
    Removing inv_mpu.o(i.mpu_read_fifo), (568 bytes).
    Removing inv_mpu.o(i.mpu_read_fifo_stream), (216 bytes).
    Removing inv_mpu.o(i.mpu_read_mem), (124 bytes).
    Removing inv_mpu.o(i.mpu_read_reg), (72 bytes).
    Removing inv_mpu.o(i.mpu_reg_dump), (84 bytes).
    Removing inv_mpu.o(i.mpu_reset_fifo), (484 bytes).
    Removing inv_mpu.o(i.mpu_run_6500_self_test), (388 bytes).
    Removing inv_mpu.o(i.mpu_run_self_test), (176 bytes).
    Removing inv_mpu.o(i.mpu_set_accel_bias_6050_reg), (216 bytes).
    Removing inv_mpu.o(i.mpu_set_accel_bias_6500_reg), (216 bytes).
    Removing inv_mpu.o(i.mpu_set_accel_fsr), (132 bytes).
    Removing inv_mpu.o(i.mpu_set_bypass), (288 bytes).
    Removing inv_mpu.o(i.mpu_set_compass_sample_rate), (104 bytes).
    Removing inv_mpu.o(i.mpu_set_dmp_state), (144 bytes).
    Removing inv_mpu.o(i.mpu_set_gyro_bias_reg), (164 bytes).
    Removing inv_mpu.o(i.mpu_set_gyro_fsr), (148 bytes).
    Removing inv_mpu.o(i.mpu_set_int_latched), (116 bytes).
    Removing inv_mpu.o(i.mpu_set_int_level), (16 bytes).
    Removing inv_mpu.o(i.mpu_set_lpf), (132 bytes).
    Removing inv_mpu.o(i.mpu_set_sample_rate), (188 bytes).
    Removing inv_mpu.o(i.mpu_set_sensors), (388 bytes).
    Removing inv_mpu.o(i.mpu_write_mem), (124 bytes).
    Removing inv_mpu.o(i.set_int_enable), (172 bytes).
    Removing inv_mpu.o(i.setup_compass), (632 bytes).
    Removing inv_mpu.o(.constdata), (616 bytes).
    Removing inv_mpu.o(.data), (56 bytes).
    Removing a2035h.o(.rev16_text), (4 bytes).
    Removing a2035h.o(.revsh_text), (4 bytes).
    Removing nrf_pwm.o(.rev16_text), (4 bytes).
    Removing nrf_pwm.o(.revsh_text), (4 bytes).
    Removing nrf_pwm.o(i.NVIC_SetPendingIRQ), (20 bytes).
    Removing nrf_pwm.o(i.NVIC_SetPriority), (120 bytes).
    Removing nrf_pwm.o(i.apply_pan73_workaround), (60 bytes).
    Removing nrf_pwm.o(i.nrf_pwm_init), (620 bytes).
    Removing nrf_pwm.o(i.nrf_pwm_set_enabled), (108 bytes).
    Removing nrf_pwm.o(i.nrf_pwm_set_max_value), (12 bytes).
    Removing nrf_pwm.o(i.nrf_pwm_set_value), (36 bytes).
    Removing nrf_pwm.o(i.nrf_pwm_set_values), (48 bytes).
    Removing nrf_pwm.o(i.ppi_enable_channel), (56 bytes).
    Removing nrf_pwm.o(i.set_frequency_and_duty_cycle), (60 bytes).
    Removing nrf_pwm.o(.constdata), (10 bytes).
    Removing ad9837.o(.rev16_text), (4 bytes).
    Removing ad9837.o(.revsh_text), (4 bytes).
    Removing ad9837.o(.emb_text), (30 bytes).
    Removing ad9837.o(i.AD9837_Enable), (32 bytes).
    Removing ad9837.o(i.AD9837_Init), (140 bytes).
    Removing ad9837.o(i.AD9837_Reset), (12 bytes).
    Removing ad9837.o(i.AD9837_SetFrequency), (52 bytes).
    Removing ad9837.o(i.AD9837_SetPhase), (22 bytes).
    Removing ad9837.o(i.AD9837_SetRegisterValue), (56 bytes).
    Removing ad9837.o(i.AD9837_SetWave), (12 bytes).
    Removing ad9837.o(i.SPI_Write), (52 bytes).
    Removing ad9837.o(i.spi_master_init), (144 bytes).
    Removing ad9837.o(.constdata), (28 bytes).
    Removing ad9837.o(.data), (4 bytes).
    Removing ltc2943.o(.rev16_text), (4 bytes).
    Removing ltc2943.o(.revsh_text), (4 bytes).
    Removing ltc2943.o(.emb_text), (30 bytes).
    Removing ltc2943.o(i.i2c_smbus_write_i2c_block_data), (36 bytes).
    Removing ltc2943.o(i.ltc294x_get_charge_now), (52 bytes).
    Removing ltc2943.o(i.ltc294x_set_charge_now), (212 bytes).
    Removing ltc2943.o(i.ltc294x_update), (24 bytes).
    Removing mpl3115.o(.rev16_text), (4 bytes).
    Removing mpl3115.o(.revsh_text), (4 bytes).
    Removing mpl3115.o(.emb_text), (30 bytes).
    Removing mpl3115.o(i.MPL3115A2_getPressure), (124 bytes).
    Removing mpl3115.o(i.MPL3115A2_getTemperature), (104 bytes).
    Removing bsp.o(.rev16_text), (4 bytes).
    Removing bsp.o(.revsh_text), (4 bytes).
    Removing bsp.o(i.bsp_buttons_state_get), (64 bytes).
    Removing bsp.o(i.bsp_indication_text_set), (18 bytes).
    Removing system_nrf51.o(.rev16_text), (4 bytes).
    Removing system_nrf51.o(.revsh_text), (4 bytes).
    Removing system_nrf51.o(i.SystemCoreClockUpdate), (16 bytes).
    Removing ble_advertising.o(.rev16_text), (4 bytes).
    Removing ble_advertising.o(.revsh_text), (4 bytes).
    Removing ble_advertising.o(i.ble_advertising_peer_addr_reply), (60 bytes).
    Removing ble_advertising.o(i.ble_advertising_restart_without_whitelist), (96 bytes).
    Removing ble_advertising.o(i.ble_advertising_whitelist_reply), (104 bytes).
    Removing ble_conn_params.o(i.ble_conn_params_change_conn_params), (112 bytes).
    Removing ble_conn_params.o(i.ble_conn_params_stop), (16 bytes).
    Removing ble_debug_assert_handler.o(.rev16_text), (4 bytes).
    Removing ble_debug_assert_handler.o(.revsh_text), (4 bytes).
    Removing ble_error_log.o(.rev16_text), (4 bytes).
    Removing ble_error_log.o(.revsh_text), (4 bytes).
    Removing ble_error_log.o(i.ble_error_log_write), (52 bytes).
    Removing ble_error_log.o(i.fetch_stack), (44 bytes).
    Removing ble_error_log.o(.bss), (392 bytes).
    Removing ble_nus.o(i.ble_nus_init), (132 bytes).
    Removing ble_nus.o(i.ble_nus_on_ble_evt), (70 bytes).
    Removing ble_nus.o(i.on_connect), (6 bytes).
    Removing ble_nus.o(i.on_disconnect), (8 bytes).
    Removing ble_nus.o(i.on_write), (84 bytes).
    Removing ble_nus.o(i.rx_char_add), (292 bytes).
    Removing ble_nus.o(i.tx_char_add), (222 bytes).
    Removing ble_nus.o(.constdata), (16 bytes).
    Removing ble_srv_common.o(i.ble_srv_ascii_to_utf8), (18 bytes).
    Removing ble_srv_common.o(i.ble_srv_report_ref_encode), (62 bytes).
    Removing device_manager_peripheral.o(.rev16_text), (4 bytes).
    Removing device_manager_peripheral.o(.revsh_text), (4 bytes).
    Removing device_manager_peripheral.o(i.dm_application_context_delete), (12 bytes).
    Removing device_manager_peripheral.o(i.dm_application_context_get), (12 bytes).
    Removing device_manager_peripheral.o(i.dm_application_context_set), (12 bytes).
    Removing device_manager_peripheral.o(i.dm_application_instance_set), (88 bytes).
    Removing device_manager_peripheral.o(i.dm_device_add), (12 bytes).
    Removing device_manager_peripheral.o(i.dm_device_delete), (120 bytes).
    Removing device_manager_peripheral.o(i.dm_device_delete_all), (112 bytes).
    Removing device_manager_peripheral.o(i.dm_distributed_keys_get), (232 bytes).
    Removing device_manager_peripheral.o(i.dm_handle_get), (108 bytes).
    Removing device_manager_peripheral.o(i.dm_peer_addr_get), (196 bytes).
    Removing device_manager_peripheral.o(i.dm_peer_addr_set), (196 bytes).
    Removing device_manager_peripheral.o(i.dm_security_setup_req), (152 bytes).
    Removing device_manager_peripheral.o(i.dm_security_status_req), (196 bytes).
    Removing device_manager_peripheral.o(i.dm_service_context_delete), (112 bytes).
    Removing device_manager_peripheral.o(i.dm_service_context_get), (240 bytes).
    Removing device_manager_peripheral.o(i.dm_service_context_set), (244 bytes).
    Removing device_manager_peripheral.o(i.dm_whitelist_create), (284 bytes).
    Removing app_uart.o(.rev16_text), (4 bytes).
    Removing app_uart.o(.revsh_text), (4 bytes).
    Removing app_uart.o(i.app_uart_close), (56 bytes).
    Removing app_uart.o(i.app_uart_flush), (4 bytes).
    Removing app_uart.o(i.app_uart_get_connection_state), (28 bytes).
    Removing app_uart.o(i.app_uart_put), (40 bytes).
    Removing ble_flash.o(.rev16_text), (4 bytes).
    Removing ble_flash.o(.revsh_text), (4 bytes).
    Removing ble_flash.o(i.ble_flash_block_write), (36 bytes).
    Removing ble_flash.o(i.ble_flash_crc16_compute), (68 bytes).
    Removing ble_flash.o(i.ble_flash_on_radio_active_evt), (12 bytes).
    Removing ble_flash.o(i.ble_flash_page_addr), (18 bytes).
    Removing ble_flash.o(i.ble_flash_page_erase), (26 bytes).
    Removing ble_flash.o(i.ble_flash_page_read), (116 bytes).
    Removing ble_flash.o(i.ble_flash_page_write), (124 bytes).
    Removing ble_flash.o(i.ble_flash_word_write), (18 bytes).
    Removing ble_flash.o(i.flash_page_erase), (56 bytes).
    Removing ble_flash.o(i.flash_word_unprotected_write), (56 bytes).
    Removing ble_flash.o(i.flash_word_write), (76 bytes).
    Removing ble_flash.o(.data), (1 bytes).
    Removing pstorage.o(.rev16_text), (4 bytes).
    Removing pstorage.o(.revsh_text), (4 bytes).
    Removing spi_master.o(.rev16_text), (4 bytes).
    Removing spi_master.o(.revsh_text), (4 bytes).
    Removing spi_master.o(i.nrf_gpio_cfg_input), (20 bytes).
    Removing spi_master.o(i.nrf_gpio_cfg_output), (18 bytes).
    Removing spi_master.o(i.spi_master_buffer_init), (142 bytes).
    Removing spi_master.o(i.spi_master_close), (176 bytes).
    Removing spi_master.o(i.spi_master_init_hw_instance), (92 bytes).
    Removing spi_master.o(i.spi_master_open), (368 bytes).
    Removing spi_master.o(i.spi_master_send_initial_bytes), (118 bytes).
    Removing spi_master.o(i.spi_master_send_recv), (312 bytes).
    Removing twi_hw_master.o(.rev16_text), (4 bytes).
    Removing twi_hw_master.o(.revsh_text), (4 bytes).
    Removing nrf_adc.o(.rev16_text), (4 bytes).
    Removing nrf_adc.o(.revsh_text), (4 bytes).
    Removing nrf_adc.o(i.nrf_adc_configure), (80 bytes).
    Removing nrf_adc.o(i.nrf_adc_convert_single), (88 bytes).
    Removing nrf_adc.o(i.nrf_adc_input_select), (40 bytes).
    Removing nrf_delay.o(.rev16_text), (4 bytes).
    Removing nrf_delay.o(.revsh_text), (4 bytes).
    Removing app_button.o(.rev16_text), (4 bytes).
    Removing app_button.o(.revsh_text), (4 bytes).
    Removing app_button.o(i.app_button_disable), (56 bytes).
    Removing app_button.o(i.app_button_is_pushed), (136 bytes).
    Removing app_error.o(.rev16_text), (4 bytes).
    Removing app_error.o(.revsh_text), (4 bytes).
    Removing app_error.o(i.app_error_handler), (56 bytes).
    Removing app_gpiote.o(.rev16_text), (4 bytes).
    Removing app_gpiote.o(.revsh_text), (4 bytes).
    Removing app_gpiote.o(i.app_gpiote_user_disable), (84 bytes).
    Removing app_scheduler.o(.rev16_text), (4 bytes).
    Removing app_scheduler.o(.revsh_text), (4 bytes).
    Removing app_scheduler.o(i.app_sched_event_put), (276 bytes).
    Removing app_scheduler.o(i.current_int_priority_get), (92 bytes).
    Removing app_timer.o(.rev16_text), (4 bytes).
    Removing app_timer.o(.revsh_text), (4 bytes).
    Removing app_timer.o(i.app_timer_cnt_diff_compute), (22 bytes).
    Removing app_timer.o(i.app_timer_cnt_get), (14 bytes).
    Removing app_timer.o(i.app_timer_stop_all), (32 bytes).
    Removing app_timer.o(i.timer_stop_all_op_schedule), (64 bytes).
    Removing app_timer_appsh.o(i.app_timer_evt_get), (50 bytes).
    Removing app_timer_appsh.o(i.app_timer_evt_schedule), (28 bytes).
    Removing retarget.o(.rev16_text), (4 bytes).
    Removing retarget.o(.revsh_text), (4 bytes).
    Removing retarget.o(i.fgetc), (22 bytes).
    Removing retarget.o(i.fputc), (16 bytes).
    Removing retarget.o(.data), (8 bytes).
    Removing softdevice_handler.o(.rev16_text), (4 bytes).
    Removing softdevice_handler.o(.revsh_text), (4 bytes).
    Removing softdevice_handler.o(i.softdevice_handler_sd_disable), (28 bytes).
    Removing spi_master.o(i.spi_master_get_state), (52 bytes).
    Removing spi_master.o(i.spi_master_evt_handler_reg), (52 bytes).

271 unused section(s) (total 32459 bytes) removed from the image.

==============================================================================

Image Symbol Table

    Local Symbols

    Symbol Name                              Value     Ov Type        Size  Object(Section)

    ../clib/../cmprslib/zerorunl2.c          0x00000000   Number         0  __dczerorl2.o ABSOLUTE
    ../clib/angel/boardlib.s                 0x00000000   Number         0  boardinit2.o ABSOLUTE
    ../clib/angel/boardlib.s                 0x00000000   Number         0  boardinit1.o ABSOLUTE
    ../clib/angel/boardlib.s                 0x00000000   Number         0  boardinit3.o ABSOLUTE
    ../clib/angel/boardlib.s                 0x00000000   Number         0  boardshut.o ABSOLUTE
    ../clib/angel/handlers.s                 0x00000000   Number         0  __scatter_zi.o ABSOLUTE
    ../clib/angel/kernel.s                   0x00000000   Number         0  __rtentry4.o ABSOLUTE
    ../clib/angel/kernel.s                   0x00000000   Number         0  __rtentry2.o ABSOLUTE
    ../clib/angel/kernel.s                   0x00000000   Number         0  rtexit2.o ABSOLUTE
    ../clib/angel/kernel.s                   0x00000000   Number         0  __rtentry.o ABSOLUTE
    ../clib/angel/kernel.s                   0x00000000   Number         0  rtexit.o ABSOLUTE
    ../clib/angel/rt.s                       0x00000000   Number         0  aeabi_ldiv0_sigfpe.o ABSOLUTE
    ../clib/angel/rt.s                       0x00000000   Number         0  aeabi_ldiv0.o ABSOLUTE
    ../clib/angel/rt.s                       0x00000000   Number         0  rt_div0.o ABSOLUTE
    ../clib/angel/rt.s                       0x00000000   Number         0  rt_errno_addr.o ABSOLUTE
    ../clib/angel/rt.s                       0x00000000   Number         0  rt_errno_addr_intlibspace.o ABSOLUTE
    ../clib/angel/rt.s                       0x00000000   Number         0  aeabi_idiv0.o ABSOLUTE
    ../clib/angel/rt.s                       0x00000000   Number         0  aeabi_idiv0_sigfpe.o ABSOLUTE
    ../clib/angel/rt.s                       0x00000000   Number         0  rt_raise.o ABSOLUTE
    ../clib/angel/scatterp.s                 0x00000000   Number         0  __scatter.o ABSOLUTE
    ../clib/angel/startup.s                  0x00000000   Number         0  __main.o ABSOLUTE
    ../clib/angel/sys.s                      0x00000000   Number         0  tempstk.o ABSOLUTE
    ../clib/angel/sys.s                      0x00000000   Number         0  use_no_semi.o ABSOLUTE
    ../clib/angel/sys.s                      0x00000000   Number         0  sys_stackheap_outer.o ABSOLUTE
    ../clib/angel/sys.s                      0x00000000   Number         0  libspace.o ABSOLUTE
    ../clib/angel/sys.s                      0x00000000   Number         0  indicate_semi.o ABSOLUTE
    ../clib/angel/sysapp.c                   0x00000000   Number         0  sys_wrch.o ABSOLUTE
    ../clib/angel/sysapp.c                   0x00000000   Number         0  sys_command.o ABSOLUTE
    ../clib/angel/sysapp.c                   0x00000000   Number         0  sys_exit.o ABSOLUTE
    ../clib/armsys.c                         0x00000000   Number         0  _get_argv_nomalloc.o ABSOLUTE
    ../clib/armsys.c                         0x00000000   Number         0  no_argv.o ABSOLUTE
    ../clib/armsys.c                         0x00000000   Number         0  argv_veneer.o ABSOLUTE
    ../clib/division.c                       0x00000000   Number         0  llsdiv.o ABSOLUTE
    ../clib/division.c                       0x00000000   Number         0  lludiv.o ABSOLUTE
    ../clib/division.s                       0x00000000   Number         0  aeabi_sdiv_div0.o ABSOLUTE
    ../clib/division.s                       0x00000000   Number         0  aeabi_sdiv.o ABSOLUTE
    ../clib/fenv.c                           0x00000000   Number         0  _rserrno.o ABSOLUTE
    ../clib/heapalloc.c                      0x00000000   Number         0  hrguard.o ABSOLUTE
    ../clib/heapaux.c                        0x00000000   Number         0  heapauxi.o ABSOLUTE
    ../clib/libinit.s                        0x00000000   Number         0  libinit2.o ABSOLUTE
    ../clib/libinit.s                        0x00000000   Number         0  libshutdown.o ABSOLUTE
    ../clib/libinit.s                        0x00000000   Number         0  libshutdown2.o ABSOLUTE
    ../clib/libinit.s                        0x00000000   Number         0  libinit.o ABSOLUTE
    ../clib/memcpset.c                       0x00000000   Number         0  rt_memclr.o ABSOLUTE
    ../clib/memcpset.c                       0x00000000   Number         0  rt_memcpy.o ABSOLUTE
    ../clib/memcpset.c                       0x00000000   Number         0  rt_memcpy.o ABSOLUTE
    ../clib/misc.s                           0x00000000   Number         0  printf_stubs.o ABSOLUTE
    ../clib/printf.c                         0x00000000   Number         0  __printf_ss_wp.o ABSOLUTE
    ../clib/printf.c                         0x00000000   Number         0  _printf_hex_int_ptr.o ABSOLUTE
    ../clib/printf.c                         0x00000000   Number         0  _printf_hex_ptr.o ABSOLUTE
    ../clib/printf.c                         0x00000000   Number         0  _printf_hex_int_ll.o ABSOLUTE
    ../clib/printf.c                         0x00000000   Number         0  _printf_hex_int.o ABSOLUTE
    ../clib/printf.c                         0x00000000   Number         0  _printf_hex_ll.o ABSOLUTE
    ../clib/printf.c                         0x00000000   Number         0  noretval__2sprintf.o ABSOLUTE
    ../clib/printf.c                         0x00000000   Number         0  __printf_nopercent.o ABSOLUTE
    ../clib/printf.c                         0x00000000   Number         0  _printf_pad.o ABSOLUTE
    ../clib/printf.c                         0x00000000   Number         0  __printf.o ABSOLUTE
    ../clib/printf.c                         0x00000000   Number         0  _printf_intcommon.o ABSOLUTE
    ../clib/printf.c                         0x00000000   Number         0  _printf_char_common.o ABSOLUTE
    ../clib/printf.c                         0x00000000   Number         0  __printf_flags_ss_wp.o ABSOLUTE
    ../clib/printf.c                         0x00000000   Number         0  _printf_hex_int_ll_ptr.o ABSOLUTE
    ../clib/printf.c                         0x00000000   Number         0  _sputc.o ABSOLUTE
    ../clib/printf.c                         0x00000000   Number         0  __printf_flags_wp.o ABSOLUTE
    ../clib/printf.c                         0x00000000   Number         0  __2sprintf.o ABSOLUTE
    ../clib/printf.c                         0x00000000   Number         0  __printf_wp.o ABSOLUTE
    ../clib/printf.c                         0x00000000   Number         0  __printf_flags_ss.o ABSOLUTE
    ../clib/printf.c                         0x00000000   Number         0  __printf_ss.o ABSOLUTE
    ../clib/printf.c                         0x00000000   Number         0  __printf_flags.o ABSOLUTE
    ../clib/printf.c                         0x00000000   Number         0  _printf_hex_ll_ptr.o ABSOLUTE
    ../clib/printf_percent.s                 0x00000000   Number         0  _printf_x.o ABSOLUTE
    ../clib/printf_percent.s                 0x00000000   Number         0  _printf_percent_end.o ABSOLUTE
    ../clib/printf_percent.s                 0x00000000   Number         0  _printf_percent.o ABSOLUTE
    ../clib/signal.c                         0x00000000   Number         0  defsig_segv_inner.o ABSOLUTE
    ../clib/signal.c                         0x00000000   Number         0  defsig_cppl_inner.o ABSOLUTE
    ../clib/signal.c                         0x00000000   Number         0  defsig_pvfn_inner.o ABSOLUTE
    ../clib/signal.c                         0x00000000   Number         0  defsig_stak_inner.o ABSOLUTE
    ../clib/signal.c                         0x00000000   Number         0  defsig_rtmem_formal.o ABSOLUTE
    ../clib/signal.c                         0x00000000   Number         0  defsig_rtmem_outer.o ABSOLUTE
    ../clib/signal.c                         0x00000000   Number         0  defsig_rtred_inner.o ABSOLUTE
    ../clib/signal.c                         0x00000000   Number         0  defsig_abrt_inner.o ABSOLUTE
    ../clib/signal.c                         0x00000000   Number         0  defsig_exit.o ABSOLUTE
    ../clib/signal.c                         0x00000000   Number         0  __raise.o ABSOLUTE
    ../clib/signal.c                         0x00000000   Number         0  defsig_general.o ABSOLUTE
    ../clib/signal.c                         0x00000000   Number         0  defsig_rtmem_inner.o ABSOLUTE
    ../clib/signal.c                         0x00000000   Number         0  defsig_fpe_outer.o ABSOLUTE
    ../clib/signal.c                         0x00000000   Number         0  defsig_fpe_inner.o ABSOLUTE
    ../clib/signal.c                         0x00000000   Number         0  defsig_fpe_formal.o ABSOLUTE
    ../clib/signal.c                         0x00000000   Number         0  defsig_other.o ABSOLUTE
    ../clib/signal.s                         0x00000000   Number         0  defsig.o ABSOLUTE
    ../clib/stdlib.c                         0x00000000   Number         0  exit.o ABSOLUTE
    ../clib/string.c                         0x00000000   Number         0  strncpy.o ABSOLUTE
    ../clib/string.c                         0x00000000   Number         0  memcmp.o ABSOLUTE
    ../clib/string.c                         0x00000000   Number         0  strlen.o ABSOLUTE
    ../fplib/cfplib/cmpret.c                 0x00000000   Number         0  cmpret.o ABSOLUTE
    ../fplib/cfplib/d2f.c                    0x00000000   Number         0  d2f.o ABSOLUTE
    ../fplib/cfplib/daddsub.c                0x00000000   Number         0  daddsub.o ABSOLUTE
    ../fplib/cfplib/dcmpin.c                 0x00000000   Number         0  dcmpin.o ABSOLUTE
    ../fplib/cfplib/ddiv.c                   0x00000000   Number         0  ddiv.o ABSOLUTE
    ../fplib/cfplib/dmul.c                   0x00000000   Number         0  dmul.o ABSOLUTE
    ../fplib/cfplib/dsqrt.c                  0x00000000   Number         0  dsqrt.o ABSOLUTE
    ../fplib/cfplib/f2d.c                    0x00000000   Number         0  f2d.o ABSOLUTE
    ../fplib/cfplib/fcmpin.c                 0x00000000   Number         0  fcmpin.o ABSOLUTE
    ../fplib/cfplib/fdiv.c                   0x00000000   Number         0  fdiv.o ABSOLUTE
    ../fplib/cfplib/ffix.c                   0x00000000   Number         0  dfixui.o ABSOLUTE
    ../fplib/cfplib/ffix.c                   0x00000000   Number         0  ffixi.o ABSOLUTE
    ../fplib/cfplib/fflt.c                   0x00000000   Number         0  fflti.o ABSOLUTE
    ../fplib/cfplib/fflt.c                   0x00000000   Number         0  dflti.o ABSOLUTE
    ../fplib/cfplib/fpinit.c                 0x00000000   Number         0  fpinit.o ABSOLUTE
    ../fplib/cfplib/nan2.c                   0x00000000   Number         0  fnan2.o ABSOLUTE
    ../fplib/cfplib/nan2.c                   0x00000000   Number         0  dnan2.o ABSOLUTE
    ../fplib/cfplib/retnan.c                 0x00000000   Number         0  retnan.o ABSOLUTE
    ../fplib/cfplib/scalbn.c                 0x00000000   Number         0  dscalbn.o ABSOLUTE
    ../fplib/dleqf6m.s                       0x00000000   Number         0  dlef.o ABSOLUTE
    ../fplib/drleqf6m.s                      0x00000000   Number         0  drlef.o ABSOLUTE
    ../fplib/faddsub6m.s                     0x00000000   Number         0  faddsub.o ABSOLUTE
    ../fplib/feqf6m.s                        0x00000000   Number         0  feqf.o ABSOLUTE
    ../fplib/fleqf6m.s                       0x00000000   Number         0  flef.o ABSOLUTE
    ../fplib/fmul6m.s                        0x00000000   Number         0  fmul.o ABSOLUTE
    ../fplib/frleqf6m.s                      0x00000000   Number         0  frlef.o ABSOLUTE
    ../fplib/usenofp.s                       0x00000000   Number         0  usenofp.o ABSOLUTE
    ../mathlib/dunder.c                      0x00000000   Number         0  dunder.o ABSOLUTE
    ../mathlib/fpclassify.c                  0x00000000   Number         0  fpclassify.o ABSOLUTE
    ../mathlib/poly.c                        0x00000000   Number         0  poly.o ABSOLUTE
    ../mathlib/pow.c                         0x00000000   Number         0  pow_x.o ABSOLUTE
    ../mathlib/pow.c                         0x00000000   Number         0  pow.o ABSOLUTE
    ../mathlib/qnan.c                        0x00000000   Number         0  qnan.o ABSOLUTE
    ../mathlib/sqrt.c                        0x00000000   Number         0  sqrt.o ABSOLUTE
    ../mathlib/sqrt.c                        0x00000000   Number         0  sqrt_x.o ABSOLUTE
    A2035H.c                                 0x00000000   Number         0  a2035h.o ABSOLUTE
    A2035H.c                                 0x00000000   Number         0  a2035h.o ABSOLUTE
    AD7746.c                                 0x00000000   Number         0  ad7746.o ABSOLUTE
    AD7746.c                                 0x00000000   Number         0  ad7746.o ABSOLUTE
    AD9837.c                                 0x00000000   Number         0  ad9837.o ABSOLUTE
    AD9837.c                                 0x00000000   Number         0  ad9837.o ABSOLUTE
    Communication.c                          0x00000000   Number         0  communication.o ABSOLUTE
    Communication.c                          0x00000000   Number         0  communication.o ABSOLUTE
    MPL3115.c                                0x00000000   Number         0  mpl3115.o ABSOLUTE
    MPL3115.c                                0x00000000   Number         0  mpl3115.o ABSOLUTE
    MPU_9150.c                               0x00000000   Number         0  mpu_9150.o ABSOLUTE
    MPU_9150.c                               0x00000000   Number         0  mpu_9150.o ABSOLUTE
    RTE\Board_Support\nRF51822_xxAA\bsp.c    0x00000000   Number         0  bsp.o ABSOLUTE
    RTE\Device\nRF51822_xxAA\arm_startup_nrf51.s 0x00000000   Number         0  arm_startup_nrf51.o ABSOLUTE
    RTE\Device\nRF51822_xxAA\system_nrf51.c  0x00000000   Number         0  system_nrf51.o ABSOLUTE
    RTE\\Board_Support\\nRF51822_xxAA\\bsp.c 0x00000000   Number         0  bsp.o ABSOLUTE
    RTE\\Device\\nRF51822_xxAA\\system_nrf51.c 0x00000000   Number         0  system_nrf51.o ABSOLUTE
    RTE\\nRF_BLE\\nRF51822_xxAA\\ble_advertising.c 0x00000000   Number         0  ble_advertising.o ABSOLUTE
    RTE\\nRF_BLE\\nRF51822_xxAA\\ble_debug_assert_handler.c 0x00000000   Number         0  ble_debug_assert_handler.o ABSOLUTE
    RTE\\nRF_BLE\\nRF51822_xxAA\\ble_error_log.c 0x00000000   Number         0  ble_error_log.o ABSOLUTE
    RTE\\nRF_Drivers\\nRF51822_xxAA\\app_uart.c 0x00000000   Number         0  app_uart.o ABSOLUTE
    RTE\\nRF_Drivers\\nRF51822_xxAA\\ble_flash.c 0x00000000   Number         0  ble_flash.o ABSOLUTE
    RTE\\nRF_Drivers\\nRF51822_xxAA\\pstorage.c 0x00000000   Number         0  pstorage.o ABSOLUTE
    RTE\\nRF_Drivers\\nRF51822_xxAA\\spi_master.c 0x00000000   Number         0  spi_master.o ABSOLUTE
    RTE\\nRF_Drivers\\nRF51822_xxAA\\twi_hw_master.c 0x00000000   Number         0  twi_hw_master.o ABSOLUTE
    RTE\\nRF_Libraries\\nRF51822_xxAA\\app_button.c 0x00000000   Number         0  app_button.o ABSOLUTE
    RTE\\nRF_Libraries\\nRF51822_xxAA\\app_error.c 0x00000000   Number         0  app_error.o ABSOLUTE
    RTE\\nRF_Libraries\\nRF51822_xxAA\\app_gpiote.c 0x00000000   Number         0  app_gpiote.o ABSOLUTE
    RTE\\nRF_Libraries\\nRF51822_xxAA\\app_scheduler.c 0x00000000   Number         0  app_scheduler.o ABSOLUTE
    RTE\\nRF_Libraries\\nRF51822_xxAA\\app_timer.c 0x00000000   Number         0  app_timer.o ABSOLUTE
    RTE\\nRF_Libraries\\nRF51822_xxAA\\retarget.c 0x00000000   Number         0  retarget.o ABSOLUTE
    RTE\\nRF_SoftDevice\\nRF51822_xxAA\\softdevice_handler.c 0x00000000   Number         0  softdevice_handler.o ABSOLUTE
    RTE\nRF_BLE\nRF51822_xxAA\ble_advdata.c  0x00000000   Number         0  ble_advdata.o ABSOLUTE
    RTE\nRF_BLE\nRF51822_xxAA\ble_advertising.c 0x00000000   Number         0  ble_advertising.o ABSOLUTE
    RTE\nRF_BLE\nRF51822_xxAA\ble_conn_params.c 0x00000000   Number         0  ble_conn_params.o ABSOLUTE
    RTE\nRF_BLE\nRF51822_xxAA\ble_debug_assert_handler.c 0x00000000   Number         0  ble_debug_assert_handler.o ABSOLUTE
    RTE\nRF_BLE\nRF51822_xxAA\ble_error_log.c 0x00000000   Number         0  ble_error_log.o ABSOLUTE
    RTE\nRF_Drivers\nRF51822_xxAA\app_uart.c 0x00000000   Number         0  app_uart.o ABSOLUTE
    RTE\nRF_Drivers\nRF51822_xxAA\ble_flash.c 0x00000000   Number         0  ble_flash.o ABSOLUTE
    RTE\nRF_Drivers\nRF51822_xxAA\pstorage.c 0x00000000   Number         0  pstorage.o ABSOLUTE
    RTE\nRF_Drivers\nRF51822_xxAA\spi_master.c 0x00000000   Number         0  spi_master.o ABSOLUTE
    RTE\nRF_Drivers\nRF51822_xxAA\twi_hw_master.c 0x00000000   Number         0  twi_hw_master.o ABSOLUTE
    RTE\nRF_Libraries\nRF51822_xxAA\app_button.c 0x00000000   Number         0  app_button.o ABSOLUTE
    RTE\nRF_Libraries\nRF51822_xxAA\app_error.c 0x00000000   Number         0  app_error.o ABSOLUTE
    RTE\nRF_Libraries\nRF51822_xxAA\app_gpiote.c 0x00000000   Number         0  app_gpiote.o ABSOLUTE
    RTE\nRF_Libraries\nRF51822_xxAA\app_scheduler.c 0x00000000   Number         0  app_scheduler.o ABSOLUTE
    RTE\nRF_Libraries\nRF51822_xxAA\app_timer.c 0x00000000   Number         0  app_timer.o ABSOLUTE
    RTE\nRF_Libraries\nRF51822_xxAA\app_timer_appsh.c 0x00000000   Number         0  app_timer_appsh.o ABSOLUTE
    RTE\nRF_Libraries\nRF51822_xxAA\app_trace.c 0x00000000   Number         0  app_trace.o ABSOLUTE
    RTE\nRF_Libraries\nRF51822_xxAA\nrf_assert.c 0x00000000   Number         0  nrf_assert.o ABSOLUTE
    RTE\nRF_Libraries\nRF51822_xxAA\retarget.c 0x00000000   Number         0  retarget.o ABSOLUTE
    RTE\nRF_SoftDevice\nRF51822_xxAA\softdevice_handler.c 0x00000000   Number         0  softdevice_handler.o ABSOLUTE
    ble_ad7746.c                             0x00000000   Number         0  ble_ad7746.o ABSOLUTE
    c:\Keil_v5\ARM\PACK\NordicSemiconductor\nRF_BLE\2.0.0\ble_services\ble_nus\ble_nus.c 0x00000000   Number         0  ble_nus.o ABSOLUTE
    c:\Keil_v5\ARM\PACK\NordicSemiconductor\nRF_BLE\2.0.0\common\ble_srv_common.c 0x00000000   Number         0  ble_srv_common.o ABSOLUTE
    c:\Keil_v5\ARM\PACK\NordicSemiconductor\nRF_BLE\2.0.0\device_manager\device_manager_peripheral.c 0x00000000   Number         0  device_manager_peripheral.o ABSOLUTE
    c:\Keil_v5\ARM\PACK\NordicSemiconductor\nRF_Drivers\2.0.0\hal\nrf_adc.c 0x00000000   Number         0  nrf_adc.o ABSOLUTE
    c:\Keil_v5\ARM\PACK\NordicSemiconductor\nRF_Drivers\2.0.0\hal\nrf_delay.c 0x00000000   Number         0  nrf_delay.o ABSOLUTE
    c:\\Keil_v5\\ARM\\PACK\\NordicSemiconductor\\nRF_BLE\\2.0.0\\device_manager\\device_manager_peripheral.c 0x00000000   Number         0  device_manager_peripheral.o ABSOLUTE
    c:\\Keil_v5\\ARM\\PACK\\NordicSemiconductor\\nRF_Drivers\\2.0.0\\hal\\nrf_adc.c 0x00000000   Number         0  nrf_adc.o ABSOLUTE
    c:\\Keil_v5\\ARM\\PACK\\NordicSemiconductor\\nRF_Drivers\\2.0.0\\hal\\nrf_delay.c 0x00000000   Number         0  nrf_delay.o ABSOLUTE
    dc.s                                     0x00000000   Number         0  dc.o ABSOLUTE
    ds2401.c                                 0x00000000   Number         0  ds2401.o ABSOLUTE
    ds2401.c                                 0x00000000   Number         0  ds2401.o ABSOLUTE
    inv_mpu.c                                0x00000000   Number         0  inv_mpu.o ABSOLUTE
    inv_mpu.c                                0x00000000   Number         0  inv_mpu.o ABSOLUTE
    ltc2943.c                                0x00000000   Number         0  ltc2943.o ABSOLUTE
    ltc2943.c                                0x00000000   Number         0  ltc2943.o ABSOLUTE
    main.c                                   0x00000000   Number         0  main.o ABSOLUTE
    main.c                                   0x00000000   Number         0  main.o ABSOLUTE
    nrf_pwm.c                                0x00000000   Number         0  nrf_pwm.o ABSOLUTE
    nrf_pwm.c                                0x00000000   Number         0  nrf_pwm.o ABSOLUTE
    sensorADC.c                              0x00000000   Number         0  sensoradc.o ABSOLUTE
    sensorADC.c                              0x00000000   Number         0  sensoradc.o ABSOLUTE
    RESET                                    0x00018000   Section      192  arm_startup_nrf51.o(RESET)
    !!!main                                  0x000180c0   Section        8  __main.o(!!!main)
    !!!scatter                               0x000180c8   Section       60  __scatter.o(!!!scatter)
    !!handler_zi                             0x00018104   Section       28  __scatter_zi.o(!!handler_zi)
    .ARM.Collect$$_printf_percent$$00000000  0x00018120   Section        2  _printf_percent.o(.ARM.Collect$$_printf_percent$$00000000)
    .ARM.Collect$$_printf_percent$$0000000C  0x00018122   Section       10  _printf_x.o(.ARM.Collect$$_printf_percent$$0000000C)
    .ARM.Collect$$_printf_percent$$00000017  0x0001812c   Section        4  _printf_percent_end.o(.ARM.Collect$$_printf_percent$$00000017)
    .ARM.Collect$$libinit$$00000000          0x00018130   Section        2  libinit.o(.ARM.Collect$$libinit$$00000000)
    .ARM.Collect$$libinit$$00000002          0x00018132   Section        0  libinit2.o(.ARM.Collect$$libinit$$00000002)
    .ARM.Collect$$libinit$$00000004          0x00018132   Section        0  libinit2.o(.ARM.Collect$$libinit$$00000004)
    .ARM.Collect$$libinit$$0000000A          0x00018132   Section        0  libinit2.o(.ARM.Collect$$libinit$$0000000A)
    .ARM.Collect$$libinit$$0000000C          0x00018132   Section        0  libinit2.o(.ARM.Collect$$libinit$$0000000C)
    .ARM.Collect$$libinit$$0000000E          0x00018132   Section        0  libinit2.o(.ARM.Collect$$libinit$$0000000E)
    .ARM.Collect$$libinit$$00000011          0x00018132   Section        0  libinit2.o(.ARM.Collect$$libinit$$00000011)
    .ARM.Collect$$libinit$$00000013          0x00018132   Section        0  libinit2.o(.ARM.Collect$$libinit$$00000013)
    .ARM.Collect$$libinit$$00000015          0x00018132   Section        0  libinit2.o(.ARM.Collect$$libinit$$00000015)
    .ARM.Collect$$libinit$$00000017          0x00018132   Section        0  libinit2.o(.ARM.Collect$$libinit$$00000017)
    .ARM.Collect$$libinit$$00000019          0x00018132   Section        0  libinit2.o(.ARM.Collect$$libinit$$00000019)
    .ARM.Collect$$libinit$$0000001B          0x00018132   Section        0  libinit2.o(.ARM.Collect$$libinit$$0000001B)
    .ARM.Collect$$libinit$$0000001D          0x00018132   Section        0  libinit2.o(.ARM.Collect$$libinit$$0000001D)
    .ARM.Collect$$libinit$$0000001F          0x00018132   Section        0  libinit2.o(.ARM.Collect$$libinit$$0000001F)
    .ARM.Collect$$libinit$$00000021          0x00018132   Section        0  libinit2.o(.ARM.Collect$$libinit$$00000021)
    .ARM.Collect$$libinit$$00000023          0x00018132   Section        0  libinit2.o(.ARM.Collect$$libinit$$00000023)
    .ARM.Collect$$libinit$$00000025          0x00018132   Section        0  libinit2.o(.ARM.Collect$$libinit$$00000025)
    .ARM.Collect$$libinit$$0000002C          0x00018132   Section        0  libinit2.o(.ARM.Collect$$libinit$$0000002C)
    .ARM.Collect$$libinit$$0000002E          0x00018132   Section        0  libinit2.o(.ARM.Collect$$libinit$$0000002E)
    .ARM.Collect$$libinit$$00000030          0x00018132   Section        0  libinit2.o(.ARM.Collect$$libinit$$00000030)
    .ARM.Collect$$libinit$$00000032          0x00018132   Section        0  libinit2.o(.ARM.Collect$$libinit$$00000032)
    .ARM.Collect$$libinit$$00000033          0x00018132   Section        2  libinit2.o(.ARM.Collect$$libinit$$00000033)
    .ARM.Collect$$libshutdown$$00000000      0x00018134   Section        2  libshutdown.o(.ARM.Collect$$libshutdown$$00000000)
    .ARM.Collect$$libshutdown$$00000002      0x00018136   Section        0  libshutdown2.o(.ARM.Collect$$libshutdown$$00000002)
    .ARM.Collect$$libshutdown$$00000004      0x00018136   Section        0  libshutdown2.o(.ARM.Collect$$libshutdown$$00000004)
    .ARM.Collect$$libshutdown$$00000007      0x00018136   Section        0  libshutdown2.o(.ARM.Collect$$libshutdown$$00000007)
    .ARM.Collect$$libshutdown$$0000000A      0x00018136   Section        0  libshutdown2.o(.ARM.Collect$$libshutdown$$0000000A)
    .ARM.Collect$$libshutdown$$0000000C      0x00018136   Section        0  libshutdown2.o(.ARM.Collect$$libshutdown$$0000000C)
    .ARM.Collect$$libshutdown$$0000000F      0x00018136   Section        0  libshutdown2.o(.ARM.Collect$$libshutdown$$0000000F)
    .ARM.Collect$$libshutdown$$00000010      0x00018136   Section        2  libshutdown2.o(.ARM.Collect$$libshutdown$$00000010)
    .ARM.Collect$$rtentry$$00000000          0x00018138   Section        0  __rtentry.o(.ARM.Collect$$rtentry$$00000000)
    .ARM.Collect$$rtentry$$00000002          0x00018138   Section        0  __rtentry2.o(.ARM.Collect$$rtentry$$00000002)
    .ARM.Collect$$rtentry$$00000004          0x00018138   Section        6  __rtentry4.o(.ARM.Collect$$rtentry$$00000004)
    .ARM.Collect$$rtentry$$00000009          0x0001813e   Section        0  __rtentry2.o(.ARM.Collect$$rtentry$$00000009)
    .ARM.Collect$$rtentry$$0000000A          0x0001813e   Section        4  __rtentry2.o(.ARM.Collect$$rtentry$$0000000A)
    .ARM.Collect$$rtentry$$0000000C          0x00018142   Section        0  __rtentry2.o(.ARM.Collect$$rtentry$$0000000C)
    .ARM.Collect$$rtentry$$0000000D          0x00018142   Section        8  __rtentry2.o(.ARM.Collect$$rtentry$$0000000D)
    .ARM.Collect$$rtexit$$00000000           0x0001814a   Section        2  rtexit.o(.ARM.Collect$$rtexit$$00000000)
    .ARM.Collect$$rtexit$$00000002           0x0001814c   Section        0  rtexit2.o(.ARM.Collect$$rtexit$$00000002)
    .ARM.Collect$$rtexit$$00000003           0x0001814c   Section        4  rtexit2.o(.ARM.Collect$$rtexit$$00000003)
    .ARM.Collect$$rtexit$$00000004           0x00018150   Section        6  rtexit2.o(.ARM.Collect$$rtexit$$00000004)
    .emb_text                                0x00018158   Section       30  ds2401.o(.emb_text)
    .emb_text                                0x00018178   Section       30  mpu_9150.o(.emb_text)
    .emb_text                                0x00018198   Section       30  a2035h.o(.emb_text)
    .emb_text                                0x000181b8   Section       30  twi_hw_master.o(.emb_text)
    .emb_text                                0x000181d8   Section       30  nrf_delay.o(.emb_text)
    .emb_text                                0x000181f8   Section       30  app_timer.o(.emb_text)
    .emb_text                                0x00018218   Section       56  rt_memcpy.o(.emb_text)
    .text                                    0x00018250   Section       84  arm_startup_nrf51.o(.text)
    .text                                    0x000182a4   Section        0  noretval__2sprintf.o(.text)
    .text                                    0x000182cc   Section        0  _printf_pad.o(.text)
    .text                                    0x0001831c   Section        0  _printf_hex_int.o(.text)
    .text                                    0x00018374   Section        0  __printf_flags_wp.o(.text)
    .text                                    0x000184ac   Section        0  memcmp.o(.text)
    .text                                    0x00018506   Section        0  rt_memcpy.o(.text)
    .text                                    0x00018588   Section        0  rt_memclr.o(.text)
    .text                                    0x000185c8   Section        0  strncpy.o(.text)
    .text                                    0x00018634   Section      346  aeabi_sdiv.o(.text)
    .text                                    0x0001878e   Section        0  heapauxi.o(.text)
    .text                                    0x00018794   Section        0  d2f.o(.text)
    .text                                    0x00018810   Section        0  daddsub.o(.text)
    _dadd1                                   0x00018811   Thumb Code   290  daddsub.o(.text)
    _dsub1                                   0x00018933   Thumb Code   470  daddsub.o(.text)
    .text                                    0x00018b68   Section        0  ddiv.o(.text)
    .text                                    0x00018fb0   Section        0  dfixui.o(.text)
    .text                                    0x00018ff8   Section        0  dflti.o(.text)
    .text                                    0x00019050   Section        0  dmul.o(.text)
    .text                                    0x00019298   Section        0  f2d.o(.text)
    .text                                    0x000192ec   Section        0  fdiv.o(.text)
    .text                                    0x0001944c   Section        0  fflti.o(.text)
    .text                                    0x000194aa   Section        0  _printf_intcommon.o(.text)
    .text                                    0x0001955c   Section        0  _printf_char_common.o(.text)
    _printf_input_char                       0x0001955d   Thumb Code    10  _printf_char_common.o(.text)
    .text                                    0x0001958c   Section        0  _sputc.o(.text)
    .text                                    0x00019598   Section        8  libspace.o(.text)
    .text                                    0x000195a0   Section       62  sys_stackheap_outer.o(.text)
    .text                                    0x000195de   Section        0  exit.o(.text)
    .text                                    0x000195f0   Section        0  sys_exit.o(.text)
    .text                                    0x000195fc   Section        2  use_no_semi.o(.text)
    .text                                    0x000195fe   Section        0  indicate_semi.o(.text)
    .text                                    0x000195fe   Section        0  __dczerorl2.o(.text)
    i.ADC_IRQHandler                         0x00019654   Section        0  sensoradc.o(i.ADC_IRQHandler)
    i.DeviceNameFromID                       0x00019748   Section        0  main.o(i.DeviceNameFromID)
    DeviceNameFromID                         0x00019749   Thumb Code   110  main.o(i.DeviceNameFromID)
    i.GPIOTE_IRQHandler                      0x000197d0   Section        0  app_gpiote.o(i.GPIOTE_IRQHandler)
    i.I2C_Init                               0x000198ac   Section        0  communication.o(i.I2C_Init)
    i.I2C_Read                               0x000198bc   Section        0  communication.o(i.I2C_Read)
    i.I2C_Write                              0x000198f0   Section        0  communication.o(i.I2C_Write)
    i.MPL3115A2_getAltitude                  0x00019924   Section        0  mpl3115.o(i.MPL3115A2_getAltitude)
    i.MPL3115A2_init                         0x000199dc   Section        0  mpl3115.o(i.MPL3115A2_init)
    i.MPL3115A2_read8                        0x00019a08   Section        0  mpl3115.o(i.MPL3115A2_read8)
    i.MPL3115A2_readBytes_                   0x00019a5e   Section        0  mpl3115.o(i.MPL3115A2_readBytes_)
    i.MPL3115A2_write8                       0x00019ac6   Section        0  mpl3115.o(i.MPL3115A2_write8)
    i.MPU9150_readByte                       0x00019b3c   Section        0  mpu_9150.o(i.MPU9150_readByte)
    i.MPU9150_readBytes                      0x00019b54   Section        0  mpu_9150.o(i.MPU9150_readBytes)
    i.MPU9150_readBytes_                     0x00019b70   Section        0  mpu_9150.o(i.MPU9150_readBytes_)
    i.MPU9150_writeByte                      0x00019bce   Section        0  mpu_9150.o(i.MPU9150_writeByte)
    i.MPU9150_writeByte_                     0x00019be4   Section        0  mpu_9150.o(i.MPU9150_writeByte_)
    i.NVIC_ClearPendingIRQ                   0x00019c1c   Section        0  app_timer.o(i.NVIC_ClearPendingIRQ)
    NVIC_ClearPendingIRQ                     0x00019c1d   Thumb Code    14  app_timer.o(i.NVIC_ClearPendingIRQ)
    i.NVIC_EnableIRQ                         0x00019c30   Section        0  app_timer.o(i.NVIC_EnableIRQ)
    NVIC_EnableIRQ                           0x00019c31   Thumb Code    14  app_timer.o(i.NVIC_EnableIRQ)
    i.NVIC_SetPendingIRQ                     0x00019c44   Section        0  app_timer.o(i.NVIC_SetPendingIRQ)
    NVIC_SetPendingIRQ                       0x00019c45   Thumb Code    14  app_timer.o(i.NVIC_SetPendingIRQ)
    i.NVIC_SetPriority                       0x00019c58   Section        0  app_uart.o(i.NVIC_SetPriority)
    NVIC_SetPriority                         0x00019c59   Thumb Code   110  app_uart.o(i.NVIC_SetPriority)
    i.NVIC_SetPriority                       0x00019cd0   Section        0  app_gpiote.o(i.NVIC_SetPriority)
    NVIC_SetPriority                         0x00019cd1   Thumb Code   110  app_gpiote.o(i.NVIC_SetPriority)
    i.NVIC_SetPriority                       0x00019d48   Section        0  app_timer.o(i.NVIC_SetPriority)
    NVIC_SetPriority                         0x00019d49   Thumb Code   110  app_timer.o(i.NVIC_SetPriority)
    i.RTC1_IRQHandler                        0x00019dc0   Section        0  app_timer.o(i.RTC1_IRQHandler)
    i.SPI0_TWI0_IRQHandler                   0x00019de8   Section        0  spi_master.o(i.SPI0_TWI0_IRQHandler)
    i.SPI1_TWI1_IRQHandler                   0x00019e1c   Section        0  spi_master.o(i.SPI1_TWI1_IRQHandler)
    i.SWI0_IRQHandler                        0x00019e54   Section        0  app_timer.o(i.SWI0_IRQHandler)
    i.SWI2_IRQHandler                        0x00019e5c   Section        0  softdevice_handler.o(i.SWI2_IRQHandler)
    i.SystemInit                             0x00019e94   Section        0  system_nrf51.o(i.SystemInit)
    i.TIMER2_IRQHandler                      0x00019ecc   Section        0  nrf_pwm.o(i.TIMER2_IRQHandler)
    i.UART0_IRQHandler                       0x0001a264   Section        0  app_uart.o(i.UART0_IRQHandler)
    i.__ARM_common_switch8                   0x0001a30c   Section        0  inv_mpu.o(i.__ARM_common_switch8)
    i._is_digit                              0x0001a328   Section        0  __printf_wp.o(i._is_digit)
    i.action_tx_ready                        0x0001a336   Section        0  app_uart.o(i.action_tx_ready)
    action_tx_ready                          0x0001a337   Thumb Code     8  app_uart.o(i.action_tx_ready)
    i.action_tx_send                         0x0001a340   Section        0  app_uart.o(i.action_tx_send)
    action_tx_send                           0x0001a341   Thumb Code    30  app_uart.o(i.action_tx_send)
    i.action_tx_stop                         0x0001a370   Section        0  app_uart.o(i.action_tx_stop)
    i.action_uart_deactivate                 0x0001a398   Section        0  app_uart.o(i.action_uart_deactivate)
    action_uart_deactivate                   0x0001a399   Thumb Code    22  app_uart.o(i.action_uart_deactivate)
    i.ad7746_on_write_config_callback        0x0001a3bc   Section        0  main.o(i.ad7746_on_write_config_callback)
    i.adv_data_encode                        0x0001a3be   Section        0  ble_advdata.o(i.adv_data_encode)
    adv_data_encode                          0x0001a3bf   Thumb Code   310  ble_advdata.o(i.adv_data_encode)
    i.advdata_check                          0x0001a4f4   Section        0  ble_advdata.o(i.advdata_check)
    advdata_check                            0x0001a4f5   Thumb Code    20  ble_advdata.o(i.advdata_check)
    i.advertising_init                       0x0001a508   Section        0  main.o(i.advertising_init)
    advertising_init                         0x0001a509   Thumb Code   160  main.o(i.advertising_init)
    i.advertising_start                      0x0001a5b4   Section        0  main.o(i.advertising_start)
    advertising_start                        0x0001a5b5   Thumb Code    36  main.o(i.advertising_start)
    i.alert_timer_handler                    0x0001a5d8   Section        0  bsp.o(i.alert_timer_handler)
    alert_timer_handler                      0x0001a5d9   Thumb Code    26  bsp.o(i.alert_timer_handler)
    i.app_button_enable                      0x0001a5f8   Section        0  app_button.o(i.app_button_enable)
    i.app_button_init                        0x0001a618   Section        0  app_button.o(i.app_button_init)
    i.app_error_handler                      0x0001a6b0   Section        0  main.o(i.app_error_handler)
    i.app_evt_notify                         0x0001a6c4   Section        0  device_manager_peripheral.o(i.app_evt_notify)
    app_evt_notify                           0x0001a6c5   Thumb Code    22  device_manager_peripheral.o(i.app_evt_notify)
    i.app_gpiote_init                        0x0001a6e0   Section        0  app_gpiote.o(i.app_gpiote_init)
    i.app_gpiote_pins_state_get              0x0001a770   Section        0  app_gpiote.o(i.app_gpiote_pins_state_get)
    i.app_gpiote_user_enable                 0x0001a7b0   Section        0  app_gpiote.o(i.app_gpiote_user_enable)
    i.app_gpiote_user_register               0x0001a8ac   Section        0  app_gpiote.o(i.app_gpiote_user_register)
    i.app_notify                             0x0001a944   Section        0  pstorage.o(i.app_notify)
    app_notify                               0x0001a945   Thumb Code    34  pstorage.o(i.app_notify)
    i.app_on_adv_timeout                     0x0001a96c   Section        0  main.o(i.app_on_adv_timeout)
    i.app_on_connect                         0x0001a9e0   Section        0  main.o(i.app_on_connect)
    i.app_on_disconnect                      0x0001aa34   Section        0  main.o(i.app_on_disconnect)
    i.app_sched_event_get                    0x0001aa54   Section        0  app_scheduler.o(i.app_sched_event_get)
    app_sched_event_get                      0x0001aa55   Thumb Code    96  app_scheduler.o(i.app_sched_event_get)
    i.app_sched_execute                      0x0001aac8   Section        0  app_scheduler.o(i.app_sched_execute)
    i.app_sched_init                         0x0001aae8   Section        0  app_scheduler.o(i.app_sched_init)
    i.app_timer_create                       0x0001ab44   Section        0  app_timer.o(i.app_timer_create)
    i.app_timer_init                         0x0001abb8   Section        0  app_timer.o(i.app_timer_init)
    i.app_timer_start                        0x0001aca8   Section        0  app_timer.o(i.app_timer_start)
    i.app_timer_stop                         0x0001ad14   Section        0  app_timer.o(i.app_timer_stop)
    i.app_uart_get                           0x0001ad58   Section        0  app_uart.o(i.app_uart_get)
    i.app_uart_init                          0x0001ad84   Section        0  app_uart.o(i.app_uart_init)
    i.appearance_encode                      0x0001af88   Section        0  ble_advdata.o(i.appearance_encode)
    appearance_encode                        0x0001af89   Thumb Code    74  ble_advdata.o(i.appearance_encode)
    i.application_timers_start               0x0001afd4   Section        0  main.o(i.application_timers_start)
    application_timers_start                 0x0001afd5   Thumb Code    84  main.o(i.application_timers_start)
    i.assert_nrf_callback                    0x0001b030   Section        0  main.o(i.assert_nrf_callback)
    i.ble_AD7746_init                        0x0001b054   Section        0  ble_ad7746.o(i.ble_AD7746_init)
    i.ble_AD7746_on_ble_evt                  0x0001b0e8   Section        0  ble_ad7746.o(i.ble_AD7746_on_ble_evt)
    i.ble_AD7746_send_temp_notify            0x0001b124   Section        0  ble_ad7746.o(i.ble_AD7746_send_temp_notify)
    i.ble_advdata_set                        0x0001b1a4   Section        0  ble_advdata.o(i.ble_advdata_set)
    i.ble_advertising_init                   0x0001b220   Section        0  ble_advertising.o(i.ble_advertising_init)
    i.ble_advertising_on_ble_evt             0x0001b3c0   Section        0  ble_advertising.o(i.ble_advertising_on_ble_evt)
    i.ble_advertising_on_sys_evt             0x0001b4f4   Section        0  ble_advertising.o(i.ble_advertising_on_sys_evt)
    i.ble_advertising_peer_address_clear     0x0001b548   Section        0  ble_advertising.o(i.ble_advertising_peer_address_clear)
    ble_advertising_peer_address_clear       0x0001b549   Thumb Code    12  ble_advertising.o(i.ble_advertising_peer_address_clear)
    i.ble_advertising_start                  0x0001b558   Section        0  ble_advertising.o(i.ble_advertising_start)
    i.ble_conn_params_init                   0x0001b7a8   Section        0  ble_conn_params.o(i.ble_conn_params_init)
    i.ble_conn_params_on_ble_evt             0x0001b820   Section        0  ble_conn_params.o(i.ble_conn_params_on_ble_evt)
    i.ble_debug_assert_handler               0x0001b860   Section        0  ble_debug_assert_handler.o(i.ble_debug_assert_handler)
    i.ble_evt_dispatch                       0x0001b89c   Section        0  main.o(i.ble_evt_dispatch)
    ble_evt_dispatch                         0x0001b89d   Thumb Code    38  main.o(i.ble_evt_dispatch)
    i.ble_nus_string_send                    0x0001b8c8   Section        0  ble_nus.o(i.ble_nus_string_send)
    i.ble_stack_init                         0x0001b920   Section        0  main.o(i.ble_stack_init)
    ble_stack_init                           0x0001b921   Thumb Code   150  main.o(i.ble_stack_init)
    i.bond_data_load                         0x0001b9c4   Section        0  device_manager_peripheral.o(i.bond_data_load)
    i.bsp_button_event_handler               0x0001ba14   Section        0  bsp.o(i.bsp_button_event_handler)
    bsp_button_event_handler                 0x0001ba15   Thumb Code    62  bsp.o(i.bsp_button_event_handler)
    i.bsp_button_is_pressed                  0x0001ba60   Section        0  bsp.o(i.bsp_button_is_pressed)
    i.bsp_buttons_enable                     0x0001ba98   Section        0  bsp.o(i.bsp_buttons_enable)
    i.bsp_event_to_button_assign             0x0001bb44   Section        0  bsp.o(i.bsp_event_to_button_assign)
    i.bsp_indication_set                     0x0001bb5c   Section        0  bsp.o(i.bsp_indication_set)
    i.bsp_init                               0x0001bb80   Section        0  bsp.o(i.bsp_init)
    i.bsp_led_indication                     0x0001bc3c   Section        0  bsp.o(i.bsp_led_indication)
    bsp_led_indication                       0x0001bc3d   Thumb Code  1156  bsp.o(i.bsp_led_indication)
    i.button_event_handler                   0x0001c0c8   Section        0  main.o(i.button_event_handler)
    button_event_handler                     0x0001c0c9   Thumb Code    44  main.o(i.button_event_handler)
    i.button_handler_execute                 0x0001c0f4   Section        0  app_button.o(i.button_handler_execute)
    button_handler_execute                   0x0001c0f5   Thumb Code    32  app_button.o(i.button_handler_execute)
    i.cap_char_add                           0x0001c114   Section        0  ble_ad7746.o(i.cap_char_add)
    i.capmeasure_timer_handler               0x0001c258   Section        0  main.o(i.capmeasure_timer_handler)
    capmeasure_timer_handler                 0x0001c259   Thumb Code     2  main.o(i.capmeasure_timer_handler)
    i.cmd_process                            0x0001c25c   Section        0  pstorage.o(i.cmd_process)
    cmd_process                              0x0001c25d   Thumb Code   346  pstorage.o(i.cmd_process)
    i.cmd_queue_dequeue                      0x0001c3c4   Section        0  pstorage.o(i.cmd_queue_dequeue)
    cmd_queue_dequeue                        0x0001c3c5   Thumb Code    40  pstorage.o(i.cmd_queue_dequeue)
    i.cmd_queue_element_init                 0x0001c3f0   Section        0  pstorage.o(i.cmd_queue_element_init)
    cmd_queue_element_init                   0x0001c3f1   Thumb Code    56  pstorage.o(i.cmd_queue_element_init)
    i.cmd_queue_enqueue                      0x0001c42c   Section        0  pstorage.o(i.cmd_queue_enqueue)
    cmd_queue_enqueue                        0x0001c42d   Thumb Code   148  pstorage.o(i.cmd_queue_enqueue)
    i.cmd_queue_init                         0x0001c4c4   Section        0  pstorage.o(i.cmd_queue_init)
    cmd_queue_init                           0x0001c4c5   Thumb Code    38  pstorage.o(i.cmd_queue_init)
    i.compare_reg_update                     0x0001c4f8   Section        0  app_timer.o(i.compare_reg_update)
    compare_reg_update                       0x0001c4f9   Thumb Code   124  app_timer.o(i.compare_reg_update)
    i.config_char_add                        0x0001c588   Section        0  ble_ad7746.o(i.config_char_add)
    i.conn_int_check                         0x0001c678   Section        0  ble_advdata.o(i.conn_int_check)
    conn_int_check                           0x0001c679   Thumb Code    88  ble_advdata.o(i.conn_int_check)
    i.conn_int_encode                        0x0001c6d4   Section        0  ble_advdata.o(i.conn_int_encode)
    conn_int_encode                          0x0001c6d5   Thumb Code    92  ble_advdata.o(i.conn_int_encode)
    i.conn_params_error_handler              0x0001c730   Section        0  main.o(i.conn_params_error_handler)
    conn_params_error_handler                0x0001c731   Thumb Code    20  main.o(i.conn_params_error_handler)
    i.conn_params_init                       0x0001c744   Section        0  main.o(i.conn_params_init)
    conn_params_init                         0x0001c745   Thumb Code    84  main.o(i.conn_params_init)
    i.conn_params_negotiation                0x0001c7a0   Section        0  ble_conn_params.o(i.conn_params_negotiation)
    conn_params_negotiation                  0x0001c7a1   Thumb Code   126  ble_conn_params.o(i.conn_params_negotiation)
    i.connection_instance_find               0x0001c834   Section        0  device_manager_peripheral.o(i.connection_instance_find)
    connection_instance_find                 0x0001c835   Thumb Code    64  device_manager_peripheral.o(i.connection_instance_find)
    i.connection_instance_init               0x0001c87c   Section        0  device_manager_peripheral.o(i.connection_instance_init)
    connection_instance_init                 0x0001c87d   Thumb Code    50  device_manager_peripheral.o(i.connection_instance_init)
    i.convert_bin_to_uAh                     0x0001c8b4   Section        0  ltc2943.o(i.convert_bin_to_uAh)
    convert_bin_to_uAh                       0x0001c8b5   Thumb Code    26  ltc2943.o(i.convert_bin_to_uAh)
    i.crc8_add                               0x0001c8ce   Section        0  ds2401.o(i.crc8_add)
    crc8_add                                 0x0001c8cf   Thumb Code    40  ds2401.o(i.crc8_add)
    i.current_int_priority_get               0x0001c8f8   Section        0  app_timer.o(i.current_int_priority_get)
    current_int_priority_get                 0x0001c8f9   Thumb Code    84  app_timer.o(i.current_int_priority_get)
    i.detection_delay_timeout_handler        0x0001c954   Section        0  app_button.o(i.detection_delay_timeout_handler)
    detection_delay_timeout_handler          0x0001c955   Thumb Code   144  app_button.o(i.detection_delay_timeout_handler)
    i.device_context_store                   0x0001c9f4   Section        0  device_manager_peripheral.o(i.device_context_store)
    device_context_store                     0x0001c9f5   Thumb Code   172  device_manager_peripheral.o(i.device_context_store)
    i.device_instance_allocate               0x0001cac4   Section        0  device_manager_peripheral.o(i.device_instance_allocate)
    device_instance_allocate                 0x0001cac5   Thumb Code   116  device_manager_peripheral.o(i.device_instance_allocate)
    i.device_instance_find                   0x0001cb40   Section        0  device_manager_peripheral.o(i.device_instance_find)
    device_instance_find                     0x0001cb41   Thumb Code    82  device_manager_peripheral.o(i.device_instance_find)
    i.device_instance_free                   0x0001cb98   Section        0  device_manager_peripheral.o(i.device_instance_free)
    device_instance_free                     0x0001cb99   Thumb Code    44  device_manager_peripheral.o(i.device_instance_free)
    i.device_manager_evt_handler             0x0001cbc8   Section        0  main.o(i.device_manager_evt_handler)
    device_manager_evt_handler               0x0001cbc9   Thumb Code    36  main.o(i.device_manager_evt_handler)
    i.device_manager_init                    0x0001cbec   Section        0  main.o(i.device_manager_init)
    device_manager_init                      0x0001cbed   Thumb Code   214  main.o(i.device_manager_init)
    i.dm_ble_evt_handler                     0x0001cccc   Section        0  device_manager_peripheral.o(i.dm_ble_evt_handler)
    i.dm_handle_initialize                   0x0001d304   Section        0  device_manager_peripheral.o(i.dm_handle_initialize)
    i.dm_init                                0x0001d320   Section        0  device_manager_peripheral.o(i.dm_init)
    i.dm_pstorage_cb_handler                 0x0001d428   Section        0  device_manager_peripheral.o(i.dm_pstorage_cb_handler)
    dm_pstorage_cb_handler                   0x0001d429   Thumb Code   474  device_manager_peripheral.o(i.dm_pstorage_cb_handler)
    i.dm_register                            0x0001d624   Section        0  device_manager_peripheral.o(i.dm_register)
    i.ds2401_initAndRead                     0x0001d6e0   Section        0  ds2401.o(i.ds2401_initAndRead)
    i.elapsed_ticks_acquire                  0x0001d784   Section        0  app_timer.o(i.elapsed_ticks_acquire)
    elapsed_ticks_acquire                    0x0001d785   Thumb Code    82  app_timer.o(i.elapsed_ticks_acquire)
    i.expired_timers_handler                 0x0001d7e8   Section        0  app_timer.o(i.expired_timers_handler)
    expired_timers_handler                   0x0001d7e9   Thumb Code   100  app_timer.o(i.expired_timers_handler)
    i.gap_params_init                        0x0001d854   Section        0  main.o(i.gap_params_init)
    gap_params_init                          0x0001d855   Thumb Code   194  main.o(i.gap_params_init)
    i.gattc_context_apply                    0x0001d916   Section        0  device_manager_peripheral.o(i.gattc_context_apply)
    gattc_context_apply                      0x0001d917   Thumb Code     6  device_manager_peripheral.o(i.gattc_context_apply)
    i.gattc_context_load                     0x0001d91c   Section        0  device_manager_peripheral.o(i.gattc_context_load)
    gattc_context_load                       0x0001d91d   Thumb Code     6  device_manager_peripheral.o(i.gattc_context_load)
    i.gattc_context_store                    0x0001d922   Section        0  device_manager_peripheral.o(i.gattc_context_store)
    gattc_context_store                      0x0001d923   Thumb Code     6  device_manager_peripheral.o(i.gattc_context_store)
    i.gatts_context_apply                    0x0001d928   Section        0  device_manager_peripheral.o(i.gatts_context_apply)
    gatts_context_apply                      0x0001d929   Thumb Code   222  device_manager_peripheral.o(i.gatts_context_apply)
    i.gatts_context_load                     0x0001da1c   Section        0  device_manager_peripheral.o(i.gatts_context_load)
    gatts_context_load                       0x0001da1d   Thumb Code    68  device_manager_peripheral.o(i.gatts_context_load)
    i.gatts_context_store                    0x0001da64   Section        0  device_manager_peripheral.o(i.gatts_context_store)
    gatts_context_store                      0x0001da65   Thumb Code   200  device_manager_peripheral.o(i.gatts_context_store)
    i.gattsc_context_apply                   0x0001db3c   Section        0  device_manager_peripheral.o(i.gattsc_context_apply)
    gattsc_context_apply                     0x0001db3d   Thumb Code    26  device_manager_peripheral.o(i.gattsc_context_apply)
    i.gattsc_context_load                    0x0001db56   Section        0  device_manager_peripheral.o(i.gattsc_context_load)
    gattsc_context_load                      0x0001db57   Thumb Code    30  device_manager_peripheral.o(i.gattsc_context_load)
    i.gattsc_context_store                   0x0001db74   Section        0  device_manager_peripheral.o(i.gattsc_context_store)
    gattsc_context_store                     0x0001db75   Thumb Code    30  device_manager_peripheral.o(i.gattsc_context_store)
    i.gpiote_event_handler                   0x0001db94   Section        0  app_button.o(i.gpiote_event_handler)
    gpiote_event_handler                     0x0001db95   Thumb Code    52  app_button.o(i.gpiote_event_handler)
    i.gpiote_uart_event_handler              0x0001dbd4   Section        0  app_uart.o(i.gpiote_uart_event_handler)
    gpiote_uart_event_handler                0x0001dbd5   Thumb Code    90  app_uart.o(i.gpiote_uart_event_handler)
    i.i2c_transfer                           0x0001dc38   Section        0  ltc2943.o(i.i2c_transfer)
    i2c_transfer                             0x0001dc39   Thumb Code    82  ltc2943.o(i.i2c_transfer)
    i.initA2035H                             0x0001dc8c   Section        0  a2035h.o(i.initA2035H)
    i.initAK8975A                            0x0001dd5c   Section        0  mpu_9150.o(i.initAK8975A)
    i.initMPU9150                            0x0001ddf0   Section        0  mpu_9150.o(i.initMPU9150)
    i.intern_softdevice_events_execute       0x0001df9c   Section        0  softdevice_handler.o(i.intern_softdevice_events_execute)
    i.is_conn_params_ok                      0x0001e058   Section        0  ble_conn_params.o(i.is_conn_params_ok)
    is_conn_params_ok                        0x0001e059   Thumb Code    30  ble_conn_params.o(i.is_conn_params_ok)
    i.is_disabled_in_debug_needed            0x0001e07c   Section        0  system_nrf51.o(i.is_disabled_in_debug_needed)
    is_disabled_in_debug_needed              0x0001e07d   Thumb Code    52  system_nrf51.o(i.is_disabled_in_debug_needed)
    i.is_manual_peripheral_setup_needed      0x0001e0b4   Section        0  system_nrf51.o(i.is_manual_peripheral_setup_needed)
    is_manual_peripheral_setup_needed        0x0001e0b5   Thumb Code   104  system_nrf51.o(i.is_manual_peripheral_setup_needed)
    i.is_word_aligned                        0x0001e120   Section        0  pstorage.o(i.is_word_aligned)
    is_word_aligned                          0x0001e121   Thumb Code    18  pstorage.o(i.is_word_aligned)
    i.leds_timer_handler                     0x0001e134   Section        0  bsp.o(i.leds_timer_handler)
    leds_timer_handler                       0x0001e135   Thumb Code    26  bsp.o(i.leds_timer_handler)
    i.list_deletions_handler                 0x0001e158   Section        0  app_timer.o(i.list_deletions_handler)
    list_deletions_handler                   0x0001e159   Thumb Code   176  app_timer.o(i.list_deletions_handler)
    i.list_insertions_handler                0x0001e218   Section        0  app_timer.o(i.list_insertions_handler)
    list_insertions_handler                  0x0001e219   Thumb Code   276  app_timer.o(i.list_insertions_handler)
    i.ltc294x_get_charge_counter             0x0001e348   Section        0  ltc2943.o(i.ltc294x_get_charge_counter)
    i.ltc294x_get_current                    0x0001e378   Section        0  ltc2943.o(i.ltc294x_get_current)
    i.ltc294x_get_temperature                0x0001e404   Section        0  ltc2943.o(i.ltc294x_get_temperature)
    i.ltc294x_get_voltage                    0x0001e44c   Section        0  ltc2943.o(i.ltc294x_get_voltage)
    i.ltc294x_init                           0x0001e490   Section        0  ltc2943.o(i.ltc294x_init)
    i.ltc294x_read_charge_register           0x0001e560   Section        0  ltc2943.o(i.ltc294x_read_charge_register)
    i.ltc294x_read_regs                      0x0001e58c   Section        0  ltc2943.o(i.ltc294x_read_regs)
    ltc294x_read_regs                        0x0001e58d   Thumb Code    76  ltc2943.o(i.ltc294x_read_regs)
    i.ltc294x_reset                          0x0001e5d8   Section        0  ltc2943.o(i.ltc294x_reset)
    i.ltc294x_write_regs                     0x0001e664   Section        0  ltc2943.o(i.ltc294x_write_regs)
    ltc294x_write_regs                       0x0001e665   Thumb Code    86  ltc2943.o(i.ltc294x_write_regs)
    i.main                                   0x0001e6bc   Section        0  main.o(i.main)
    i.manuf_specific_data_encode             0x0001e728   Section        0  ble_advdata.o(i.manuf_specific_data_encode)
    manuf_specific_data_encode               0x0001e729   Thumb Code   106  ble_advdata.o(i.manuf_specific_data_encode)
    i.name_encode                            0x0001e792   Section        0  ble_advdata.o(i.name_encode)
    name_encode                              0x0001e793   Thumb Code   150  ble_advdata.o(i.name_encode)
    i.next_index                             0x0001e828   Section        0  app_scheduler.o(i.next_index)
    next_index                               0x0001e829   Thumb Code    20  app_scheduler.o(i.next_index)
    i.no_service_context_apply               0x0001e840   Section        0  device_manager_peripheral.o(i.no_service_context_apply)
    no_service_context_apply                 0x0001e841   Thumb Code     6  device_manager_peripheral.o(i.no_service_context_apply)
    i.no_service_context_load                0x0001e846   Section        0  device_manager_peripheral.o(i.no_service_context_load)
    no_service_context_load                  0x0001e847   Thumb Code     6  device_manager_peripheral.o(i.no_service_context_load)
    i.no_service_context_store               0x0001e84c   Section        0  device_manager_peripheral.o(i.no_service_context_store)
    no_service_context_store                 0x0001e84d   Thumb Code     6  device_manager_peripheral.o(i.no_service_context_store)
    i.nrf_delay_ms                           0x0001e854   Section        0  nrf_delay.o(i.nrf_delay_ms)
    i.nrf_gpio_cfg_output                    0x0001e870   Section        0  app_uart.o(i.nrf_gpio_cfg_output)
    nrf_gpio_cfg_output                      0x0001e871   Thumb Code    18  app_uart.o(i.nrf_gpio_cfg_output)
    i.nrf_gpio_pin_clear                     0x0001e884   Section        0  main.o(i.nrf_gpio_pin_clear)
    nrf_gpio_pin_clear                       0x0001e885   Thumb Code    10  main.o(i.nrf_gpio_pin_clear)
    i.nrf_gpio_pin_clear                     0x0001e894   Section        0  a2035h.o(i.nrf_gpio_pin_clear)
    nrf_gpio_pin_clear                       0x0001e895   Thumb Code    10  a2035h.o(i.nrf_gpio_pin_clear)
    i.nrf_gpio_pin_set                       0x0001e8a4   Section        0  main.o(i.nrf_gpio_pin_set)
    nrf_gpio_pin_set                         0x0001e8a5   Thumb Code    10  main.o(i.nrf_gpio_pin_set)
    i.nrf_gpio_pin_set                       0x0001e8b4   Section        0  a2035h.o(i.nrf_gpio_pin_set)
    nrf_gpio_pin_set                         0x0001e8b5   Thumb Code    10  a2035h.o(i.nrf_gpio_pin_set)
    i.nrf_gpio_pin_set                       0x0001e8c4   Section        0  spi_master.o(i.nrf_gpio_pin_set)
    nrf_gpio_pin_set                         0x0001e8c5   Thumb Code    10  spi_master.o(i.nrf_gpio_pin_set)
    i.nrf_gpio_pin_write                     0x0001e8d4   Section        0  nrf_pwm.o(i.nrf_gpio_pin_write)
    nrf_gpio_pin_write                       0x0001e8d5   Thumb Code    34  nrf_pwm.o(i.nrf_gpio_pin_write)
    i.nrf_gpiote_task_config                 0x0001e8fc   Section        0  nrf_pwm.o(i.nrf_gpiote_task_config)
    nrf_gpiote_task_config                   0x0001e8fd   Thumb Code   102  nrf_pwm.o(i.nrf_gpiote_task_config)
    i.nrf_gpiote_unconfig                    0x0001e974   Section        0  nrf_pwm.o(i.nrf_gpiote_unconfig)
    nrf_gpiote_unconfig                      0x0001e975   Thumb Code    16  nrf_pwm.o(i.nrf_gpiote_unconfig)
    i.on_adv_evt                             0x0001e98c   Section        0  main.o(i.on_adv_evt)
    on_adv_evt                               0x0001e98d   Thumb Code   152  main.o(i.on_adv_evt)
    i.on_ble_evt                             0x0001ea28   Section        0  main.o(i.on_ble_evt)
    on_ble_evt                               0x0001ea29   Thumb Code    74  main.o(i.on_ble_evt)
    i.on_conn_params_evt                     0x0001ea78   Section        0  main.o(i.on_conn_params_evt)
    on_conn_params_evt                       0x0001ea79   Thumb Code    46  main.o(i.on_conn_params_evt)
    i.on_conn_params_update                  0x0001eaac   Section        0  ble_conn_params.o(i.on_conn_params_update)
    on_conn_params_update                    0x0001eaad   Thumb Code    20  ble_conn_params.o(i.on_conn_params_update)
    i.on_connect                             0x0001eac4   Section        0  ble_ad7746.o(i.on_connect)
    on_connect                               0x0001eac5   Thumb Code     6  ble_ad7746.o(i.on_connect)
    i.on_connect                             0x0001eacc   Section        0  ble_conn_params.o(i.on_connect)
    on_connect                               0x0001eacd   Thumb Code    42  ble_conn_params.o(i.on_connect)
    i.on_cts_high                            0x0001eb08   Section        0  app_uart.o(i.on_cts_high)
    on_cts_high                              0x0001eb09   Thumb Code    36  app_uart.o(i.on_cts_high)
    i.on_cts_low                             0x0001eb30   Section        0  app_uart.o(i.on_cts_low)
    on_cts_low                               0x0001eb31   Thumb Code    46  app_uart.o(i.on_cts_low)
    i.on_disconnect                          0x0001eb6c   Section        0  ble_ad7746.o(i.on_disconnect)
    on_disconnect                            0x0001eb6d   Thumb Code     8  ble_ad7746.o(i.on_disconnect)
    i.on_disconnect                          0x0001eb74   Section        0  ble_conn_params.o(i.on_disconnect)
    on_disconnect                            0x0001eb75   Thumb Code    50  ble_conn_params.o(i.on_disconnect)
    i.on_tx_ready                            0x0001ebb8   Section        0  app_uart.o(i.on_tx_ready)
    on_tx_ready                              0x0001ebb9   Thumb Code    38  app_uart.o(i.on_tx_ready)
    i.on_uart_close                          0x0001ebe4   Section        0  app_uart.o(i.on_uart_close)
    on_uart_close                            0x0001ebe5   Thumb Code     8  app_uart.o(i.on_uart_close)
    i.on_uart_event                          0x0001ebec   Section        0  app_uart.o(i.on_uart_event)
    on_uart_event                            0x0001ebed   Thumb Code    54  app_uart.o(i.on_uart_event)
    i.on_uart_put                            0x0001ec24   Section        0  app_uart.o(i.on_uart_put)
    on_uart_put                              0x0001ec25   Thumb Code    16  app_uart.o(i.on_uart_put)
    i.on_write                               0x0001ec38   Section        0  ble_ad7746.o(i.on_write)
    on_write                                 0x0001ec39   Thumb Code    42  ble_ad7746.o(i.on_write)
    i.on_write                               0x0001ec64   Section        0  ble_conn_params.o(i.on_write)
    on_write                                 0x0001ec65   Thumb Code    84  ble_conn_params.o(i.on_write)
    i.peer_address_exists                    0x0001ecc0   Section        0  ble_advertising.o(i.peer_address_exists)
    peer_address_exists                      0x0001ecc1   Thumb Code    26  ble_advertising.o(i.peer_address_exists)
    i.peer_instance_init                     0x0001ecdc   Section        0  device_manager_peripheral.o(i.peer_instance_init)
    peer_instance_init                       0x0001ecdd   Thumb Code    76  device_manager_peripheral.o(i.peer_instance_init)
    i.pins_sense_disable                     0x0001ed2c   Section        0  app_gpiote.o(i.pins_sense_disable)
    pins_sense_disable                       0x0001ed2d   Thumb Code    98  app_gpiote.o(i.pins_sense_disable)
    i.pstorage_access_status_get             0x0001ed94   Section        0  pstorage.o(i.pstorage_access_status_get)
    i.pstorage_block_identifier_get          0x0001edc0   Section        0  pstorage.o(i.pstorage_block_identifier_get)
    i.pstorage_clear                         0x0001ee50   Section        0  pstorage.o(i.pstorage_clear)
    i.pstorage_flash_page_end                0x0001ef00   Section        0  pstorage.o(i.pstorage_flash_page_end)
    pstorage_flash_page_end                  0x0001ef01   Thumb Code    36  pstorage.o(i.pstorage_flash_page_end)
    i.pstorage_flash_page_size               0x0001ef28   Section        0  pstorage.o(i.pstorage_flash_page_size)
    pstorage_flash_page_size                 0x0001ef29   Thumb Code    10  pstorage.o(i.pstorage_flash_page_size)
    i.pstorage_init                          0x0001ef34   Section        0  pstorage.o(i.pstorage_init)
    i.pstorage_load                          0x0001efd0   Section        0  pstorage.o(i.pstorage_load)
    i.pstorage_register                      0x0001f0bc   Section        0  pstorage.o(i.pstorage_register)
    i.pstorage_store                         0x0001f200   Section        0  pstorage.o(i.pstorage_store)
    i.pstorage_sys_event_handler             0x0001f2d4   Section        0  pstorage.o(i.pstorage_sys_event_handler)
    i.pstorage_update                        0x0001f4d8   Section        0  pstorage.o(i.pstorage_update)
    i.pullupdown_gpio_cfg_output             0x0001f5ac   Section        0  a2035h.o(i.pullupdown_gpio_cfg_output)
    pullupdown_gpio_cfg_output               0x0001f5ad   Thumb Code    56  a2035h.o(i.pullupdown_gpio_cfg_output)
    i.readMagData                            0x0001f5e4   Section        0  mpu_9150.o(i.readMagData)
    i.readMagFloatUT                         0x0001f764   Section        0  mpu_9150.o(i.readMagFloatUT)
    i.read_byte                              0x0001f7e0   Section        0  ds2401.o(i.read_byte)
    read_byte                                0x0001f7e1   Thumb Code   100  ds2401.o(i.read_byte)
    i.reset                                  0x0001f848   Section        0  ds2401.o(i.reset)
    reset                                    0x0001f849   Thumb Code    80  ds2401.o(i.reset)
    i.resetMPU9150                           0x0001f89c   Section        0  mpu_9150.o(i.resetMPU9150)
    i.resumeSendData                         0x0001f8b4   Section        0  main.o(i.resumeSendData)
    i.rtc1_counter_get                       0x0001f984   Section        0  app_timer.o(i.rtc1_counter_get)
    rtc1_counter_get                         0x0001f985   Thumb Code     6  app_timer.o(i.rtc1_counter_get)
    i.rtc1_init                              0x0001f990   Section        0  app_timer.o(i.rtc1_init)
    rtc1_init                                0x0001f991   Thumb Code    18  app_timer.o(i.rtc1_init)
    i.rtc1_start                             0x0001f9a8   Section        0  app_timer.o(i.rtc1_start)
    rtc1_start                               0x0001f9a9   Thumb Code    48  app_timer.o(i.rtc1_start)
    i.rtc1_stop                              0x0001f9e4   Section        0  app_timer.o(i.rtc1_stop)
    rtc1_stop                                0x0001f9e5   Thumb Code    66  app_timer.o(i.rtc1_stop)
    i.safe_margins_present                   0x0001fa3c   Section        0  nrf_pwm.o(i.safe_margins_present)
    safe_margins_present                     0x0001fa3d   Thumb Code    60  nrf_pwm.o(i.safe_margins_present)
    i.scheduler_init                         0x0001fa80   Section        0  main.o(i.scheduler_init)
    scheduler_init                           0x0001fa81   Thumb Code    44  main.o(i.scheduler_init)
    i.sense_level_toggle                     0x0001fab0   Section        0  app_gpiote.o(i.sense_level_toggle)
    sense_level_toggle                       0x0001fab1   Thumb Code   128  app_gpiote.o(i.sense_level_toggle)
    i.service_data_encode                    0x0001fb30   Section        0  ble_advdata.o(i.service_data_encode)
    service_data_encode                      0x0001fb31   Thumb Code   140  ble_advdata.o(i.service_data_encode)
    i.services_init                          0x0001fbbc   Section        0  main.o(i.services_init)
    services_init                            0x0001fbbd   Thumb Code    46  main.o(i.services_init)
    i.softdevice_assertion_handler           0x0001fbf4   Section        0  softdevice_handler.o(i.softdevice_assertion_handler)
    i.softdevice_ble_evt_handler_set         0x0001fc08   Section        0  softdevice_handler.o(i.softdevice_ble_evt_handler_set)
    i.softdevice_handler_init                0x0001fc20   Section        0  softdevice_handler.o(i.softdevice_handler_init)
    i.softdevice_sys_evt_handler_set         0x0001fc88   Section        0  softdevice_handler.o(i.softdevice_sys_evt_handler_set)
    i.someother_module_init                  0x0001fca0   Section        0  main.o(i.someother_module_init)
    i.spi_master_buffer_release              0x0001fd64   Section        0  spi_master.o(i.spi_master_buffer_release)
    spi_master_buffer_release                0x0001fd65   Thumb Code    82  spi_master.o(i.spi_master_buffer_release)
    i.spi_master_get_instance                0x0001fdb8   Section        0  spi_master.o(i.spi_master_get_instance)
    spi_master_get_instance                  0x0001fdb9   Thumb Code    20  spi_master.o(i.spi_master_get_instance)
    i.spi_master_send_recv_irq               0x0001fdd0   Section        0  spi_master.o(i.spi_master_send_recv_irq)
    spi_master_send_recv_irq                 0x0001fdd1   Thumb Code   228  spi_master.o(i.spi_master_send_recv_irq)
    i.spi_master_signal_evt                  0x0001feb4   Section        0  spi_master.o(i.spi_master_signal_evt)
    spi_master_signal_evt                    0x0001feb5   Thumb Code    70  spi_master.o(i.spi_master_signal_evt)
    i.srdata_check                           0x0001ff00   Section        0  ble_advdata.o(i.srdata_check)
    srdata_check                             0x0001ff01   Thumb Code    16  ble_advdata.o(i.srdata_check)
    i.storage_operation_dummy_handler        0x0001ff10   Section        0  device_manager_peripheral.o(i.storage_operation_dummy_handler)
    storage_operation_dummy_handler          0x0001ff11   Thumb Code     8  device_manager_peripheral.o(i.storage_operation_dummy_handler)
    i.swap_state_process                     0x0001ff18   Section        0  pstorage.o(i.swap_state_process)
    swap_state_process                       0x0001ff19   Thumb Code   430  pstorage.o(i.swap_state_process)
    i.sys_evt_dispatch                       0x000200cc   Section        0  main.o(i.sys_evt_dispatch)
    sys_evt_dispatch                         0x000200cd   Thumb Code    18  main.o(i.sys_evt_dispatch)
    i.temp_char_add                          0x000200e0   Section        0  ble_ad7746.o(i.temp_char_add)
    i.tempmeasure_timer_handler              0x00020224   Section        0  main.o(i.tempmeasure_timer_handler)
    tempmeasure_timer_handler                0x00020225   Thumb Code    58  main.o(i.tempmeasure_timer_handler)
    i.ticks_diff_get                         0x0002026c   Section        0  app_timer.o(i.ticks_diff_get)
    ticks_diff_get                           0x0002026d   Thumb Code    10  app_timer.o(i.ticks_diff_get)
    i.timeout_handler_exec                   0x00020278   Section        0  app_timer.o(i.timeout_handler_exec)
    timeout_handler_exec                     0x00020279   Thumb Code    58  app_timer.o(i.timeout_handler_exec)
    i.timer_list_handler                     0x000202b8   Section        0  app_timer.o(i.timer_list_handler)
    timer_list_handler                       0x000202b9   Thumb Code    76  app_timer.o(i.timer_list_handler)
    i.timer_list_handler_sched               0x00020310   Section        0  app_timer.o(i.timer_list_handler_sched)
    timer_list_handler_sched                 0x00020311   Thumb Code    10  app_timer.o(i.timer_list_handler_sched)
    i.timer_list_insert                      0x0002031c   Section        0  app_timer.o(i.timer_list_insert)
    timer_list_insert                        0x0002031d   Thumb Code   212  app_timer.o(i.timer_list_insert)
    i.timer_list_remove                      0x000203f8   Section        0  app_timer.o(i.timer_list_remove)
    timer_list_remove                        0x000203f9   Thumb Code   184  app_timer.o(i.timer_list_remove)
    i.timer_start_op_schedule                0x000204c4   Section        0  app_timer.o(i.timer_start_op_schedule)
    timer_start_op_schedule                  0x000204c5   Thumb Code    80  app_timer.o(i.timer_start_op_schedule)
    i.timer_stop_op_schedule                 0x00020518   Section        0  app_timer.o(i.timer_stop_op_schedule)
    timer_stop_op_schedule                   0x00020519   Thumb Code    58  app_timer.o(i.timer_stop_op_schedule)
    i.timer_timeouts_check                   0x00020558   Section        0  app_timer.o(i.timer_timeouts_check)
    timer_timeouts_check                     0x00020559   Thumb Code   132  app_timer.o(i.timer_timeouts_check)
    i.timer_timeouts_check_sched             0x000205f4   Section        0  app_timer.o(i.timer_timeouts_check_sched)
    timer_timeouts_check_sched               0x000205f5   Thumb Code    10  app_timer.o(i.timer_timeouts_check_sched)
    i.timers_init                            0x00020600   Section        0  main.o(i.timers_init)
    timers_init                              0x00020601   Thumb Code   120  main.o(i.timers_init)
    i.twi_master_clear_bus                   0x0002068c   Section        0  twi_hw_master.o(i.twi_master_clear_bus)
    twi_master_clear_bus                     0x0002068d   Thumb Code   216  twi_hw_master.o(i.twi_master_clear_bus)
    i.twi_master_init                        0x00020770   Section        0  twi_hw_master.o(i.twi_master_init)
    i.twi_master_read                        0x000207dc   Section        0  twi_hw_master.o(i.twi_master_read)
    twi_master_read                          0x000207dd   Thumb Code   248  twi_hw_master.o(i.twi_master_read)
    i.twi_master_transfer                    0x000208ec   Section        0  twi_hw_master.o(i.twi_master_transfer)
    i.twi_master_write                       0x00020938   Section        0  twi_hw_master.o(i.twi_master_write)
    twi_master_write                         0x00020939   Thumb Code   168  twi_hw_master.o(i.twi_master_write)
    i.tx_power_level_encode                  0x000209f4   Section        0  ble_advdata.o(i.tx_power_level_encode)
    tx_power_level_encode                    0x000209f5   Thumb Code    48  ble_advdata.o(i.tx_power_level_encode)
    i.uart_event_handle_withBle              0x00020a24   Section        0  a2035h.o(i.uart_event_handle_withBle)
    i.uart_no_flow_control_init              0x00020b24   Section        0  app_uart.o(i.uart_no_flow_control_init)
    uart_no_flow_control_init                0x00020b25   Thumb Code    50  app_uart.o(i.uart_no_flow_control_init)
    i.uart_standard_flow_control_init        0x00020b64   Section        0  app_uart.o(i.uart_standard_flow_control_init)
    uart_standard_flow_control_init          0x00020b65   Thumb Code    50  app_uart.o(i.uart_standard_flow_control_init)
    i.uint16_encode                          0x00020ba4   Section        0  ble_advdata.o(i.uint16_encode)
    uint16_encode                            0x00020ba5   Thumb Code    18  ble_advdata.o(i.uint16_encode)
    i.update_status_bit_reset                0x00020bb8   Section        0  device_manager_peripheral.o(i.update_status_bit_reset)
    update_status_bit_reset                  0x00020bb9   Thumb Code    16  device_manager_peripheral.o(i.update_status_bit_reset)
    i.update_timeout_handler                 0x00020bcc   Section        0  ble_conn_params.o(i.update_timeout_handler)
    update_timeout_handler                   0x00020bcd   Thumb Code   136  ble_conn_params.o(i.update_timeout_handler)
    i.user_id_get                            0x00020c68   Section        0  app_timer.o(i.user_id_get)
    user_id_get                              0x00020c69   Thumb Code    34  app_timer.o(i.user_id_get)
    i.user_op_alloc                          0x00020c8a   Section        0  app_timer.o(i.user_op_alloc)
    user_op_alloc                            0x00020c8b   Thumb Code    44  app_timer.o(i.user_op_alloc)
    i.user_op_enque                          0x00020cb6   Section        0  app_timer.o(i.user_op_enque)
    user_op_enque                            0x00020cb7   Thumb Code     4  app_timer.o(i.user_op_enque)
    i.uuid_list_encode                       0x00020cba   Section        0  ble_advdata.o(i.uuid_list_encode)
    uuid_list_encode                         0x00020cbb   Thumb Code    64  ble_advdata.o(i.uuid_list_encode)
    i.uuid_list_sized_encode                 0x00020cfa   Section        0  ble_advdata.o(i.uuid_list_sized_encode)
    uuid_list_sized_encode                   0x00020cfb   Thumb Code   196  ble_advdata.o(i.uuid_list_sized_encode)
    i.wait                                   0x00020dc0   Section        0  mpu_9150.o(i.wait)
    i.whitelist_has_entries                  0x00020de8   Section        0  ble_advertising.o(i.whitelist_has_entries)
    whitelist_has_entries                    0x00020de9   Thumb Code    22  ble_advertising.o(i.whitelist_has_entries)
    i.write_byte                             0x00020e00   Section        0  ds2401.o(i.write_byte)
    write_byte                               0x00020e01   Thumb Code   144  ds2401.o(i.write_byte)
    x$fpl$fadd                               0x00020e94   Section      140  faddsub.o(x$fpl$fadd)
    _fadd1                                   0x00020ea1   Thumb Code     0  faddsub.o(x$fpl$fadd)
    x$fpl$fmul                               0x00020f20   Section      176  fmul.o(x$fpl$fmul)
    x$fpl$fsub                               0x00020fd0   Section      208  faddsub.o(x$fpl$fsub)
    _fsub1                                   0x00020fdd   Thumb Code     0  faddsub.o(x$fpl$fsub)
    .constdata                               0x000210a0   Section        4  main.o(.constdata)
    x$fpl$usenofp                            0x000210a0   Section        0  usenofp.o(x$fpl$usenofp)
    .constdata                               0x000210a4   Section       12  a2035h.o(.constdata)
    .constdata                               0x000210b0   Section       24  bsp.o(.constdata)
    m_buttons_list                           0x000210b0   Data           8  bsp.o(.constdata)
    app_buttons                              0x000210b8   Data          16  bsp.o(.constdata)
    .constdata                               0x000210c8   Section       52  device_manager_peripheral.o(.constdata)
    .constdata                               0x000210fc   Section        4  spi_master.o(.constdata)
    .constdata                               0x00021100   Section       40  _printf_hex_int.o(.constdata)
    uc_hextab                                0x00021100   Data          20  _printf_hex_int.o(.constdata)
    lc_hextab                                0x00021114   Data          20  _printf_hex_int.o(.constdata)
    .constdata                               0x00021128   Section       17  __printf_flags_wp.o(.constdata)
    maptable                                 0x00021128   Data          17  __printf_flags_wp.o(.constdata)
    .constdata                               0x00021139   Section      128  ddiv.o(.constdata)
    ddiv_reciptbl                            0x00021139   Data         128  ddiv.o(.constdata)
    .constdata                               0x000211b9   Section       64  fdiv.o(.constdata)
    fdiv_tab                                 0x000211b9   Data          64  fdiv.o(.constdata)
    .data                                    0x20002000   Section       36  main.o(.data)
    AD7746_UUID_BASE                         0x20002000   Data          16  main.o(.data)
    m_conn_handle                            0x20002010   Data           2  main.o(.data)
    m_app_handle                             0x20002012   Data           1  main.o(.data)
    m_cap_timer_id                           0x20002014   Data           4  main.o(.data)
    m_temp_timer_id                          0x20002018   Data           4  main.o(.data)
    finishedADC                              0x2000201c   Data           1  main.o(.data)
    resumetype                               0x2000201d   Data           1  main.o(.data)
    .data                                    0x20002024   Section       16  ble_ad7746.o(.data)
    AD7746_UUID_BASE                         0x20002024   Data          16  ble_ad7746.o(.data)
    .data                                    0x20002034   Section       16  sensoradc.o(.data)
    .data                                    0x20002044   Section        8  ds2401.o(.data)
    .data                                    0x2000204c   Section      132  mpu_9150.o(.data)
    .data                                    0x200020d0   Section        2  a2035h.o(.data)
    index                                    0x200020d0   Data           1  a2035h.o(.data)
    rx_buf                                   0x200020d1   Data           1  a2035h.o(.data)
    .data                                    0x200020d4   Section       36  nrf_pwm.o(.data)
    pwm_max_value                            0x200020d4   Data           4  nrf_pwm.o(.data)
    pwm_next_max_value                       0x200020d8   Data           4  nrf_pwm.o(.data)
    pwm_modified                             0x200020dc   Data           4  nrf_pwm.o(.data)
    pwm_gpiote_channel                       0x200020e0   Data           4  nrf_pwm.o(.data)
    pwm_num_channels                         0x200020e4   Data           4  nrf_pwm.o(.data)
    pwm_cc_update_margin_ticks               0x200020e8   Data           4  nrf_pwm.o(.data)
    i                                        0x200020ec   Data           4  nrf_pwm.o(.data)
    new_capture                              0x200020f0   Data           4  nrf_pwm.o(.data)
    old_capture                              0x200020f4   Data           4  nrf_pwm.o(.data)
    .data                                    0x200020f8   Section        5  ltc2943.o(.data)
    ltc294x_properties                       0x200020f8   Data           5  ltc2943.o(.data)
    .data                                    0x20002100   Section       26  bsp.o(.data)
    m_stable_state                           0x20002100   Data           1  bsp.o(.data)
    m_app_ticks_per_100ms                    0x20002104   Data           4  bsp.o(.data)
    m_indication_type                        0x20002108   Data           4  bsp.o(.data)
    m_leds_timer_id                          0x2000210c   Data           4  bsp.o(.data)
    m_alert_timer_id                         0x20002110   Data           4  bsp.o(.data)
    m_registered_callback                    0x20002114   Data           4  bsp.o(.data)
    m_events_list                            0x20002118   Data           2  bsp.o(.data)
    .data                                    0x2000211c   Section        4  system_nrf51.o(.data)
    __tagsym$$used                           0x2000211c   Number         0  system_nrf51.o(.data)
    .data                                    0x20002120   Section       34  ble_advertising.o(.data)
    m_advertising_start_pending              0x20002120   Data           1  ble_advertising.o(.data)
    m_peer_address                           0x20002121   Data           7  ble_advertising.o(.data)
    m_adv_evt                                0x20002128   Data           1  ble_advertising.o(.data)
    m_evt_handler                            0x2000212c   Data           4  ble_advertising.o(.data)
    m_error_handler                          0x20002130   Data           4  ble_advertising.o(.data)
    m_adv_mode_current                       0x20002134   Data           1  ble_advertising.o(.data)
    m_direct_adv_cnt                         0x20002135   Data           1  ble_advertising.o(.data)
    m_whitelist_temporarily_disabled         0x20002136   Data           1  ble_advertising.o(.data)
    m_whitelist_reply_expected               0x20002137   Data           1  ble_advertising.o(.data)
    m_peer_addr_reply_expected               0x20002138   Data           1  ble_advertising.o(.data)
    m_slave_conn_int                         0x2000213a   Data           4  ble_advertising.o(.data)
    m_tx_power_level                         0x2000213e   Data           1  ble_advertising.o(.data)
    current_slave_link_conn_handle           0x20002140   Data           2  ble_advertising.o(.data)
    .data                                    0x20002144   Section       25  ble_conn_params.o(.data)
    m_preferred_conn_params                  0x20002144   Data           8  ble_conn_params.o(.data)
    m_update_count                           0x2000214c   Data           1  ble_conn_params.o(.data)
    m_conn_handle                            0x2000214e   Data           2  ble_conn_params.o(.data)
    m_current_conn_params                    0x20002150   Data           8  ble_conn_params.o(.data)
    m_conn_params_timer_id                   0x20002158   Data           4  ble_conn_params.o(.data)
    m_change_param                           0x2000215c   Data           1  ble_conn_params.o(.data)
    .data                                    0x20002160   Section        8  ble_debug_assert_handler.o(.data)
    s_line_num                               0x20002160   Data           2  ble_debug_assert_handler.o(.data)
    s_error_code                             0x20002164   Data           4  ble_debug_assert_handler.o(.data)
    .data                                    0x20002168   Section       20  device_manager_peripheral.o(.data)
    m_storage_handle                         0x20002168   Data           8  device_manager_peripheral.o(.data)
    m_peer_addr_update                       0x20002170   Data           4  device_manager_peripheral.o(.data)
    m_module_initialized                     0x20002174   Data           1  device_manager_peripheral.o(.data)
    m_irk_index_table                        0x20002175   Data           7  device_manager_peripheral.o(.data)
    .data                                    0x2000217c   Section       17  app_uart.o(.data)
    m_tx_byte                                0x2000217c   Data           1  app_uart.o(.data)
    m_rx_byte                                0x2000217e   Data           2  app_uart.o(.data)
    m_instance_counter                       0x20002180   Data           1  app_uart.o(.data)
    m_gpiote_uid                             0x20002181   Data           1  app_uart.o(.data)
    m_pin_cts_mask                           0x20002184   Data           4  app_uart.o(.data)
    m_event_handler                          0x20002188   Data           4  app_uart.o(.data)
    m_current_state                          0x2000218c   Data           1  app_uart.o(.data)
    .data                                    0x20002190   Section       12  pstorage.o(.data)
    m_next_app_instance                      0x20002190   Data           2  pstorage.o(.data)
    m_next_page_addr                         0x20002194   Data           4  pstorage.o(.data)
    m_round_val                              0x20002198   Data           2  pstorage.o(.data)
    m_module_initialized                     0x2000219a   Data           1  pstorage.o(.data)
    m_swap_state                             0x2000219b   Data           1  pstorage.o(.data)
    .data                                    0x2000219c   Section       28  app_button.o(.data)
    mp_buttons                               0x2000219c   Data           4  app_button.o(.data)
    m_button_count                           0x200021a0   Data           1  app_button.o(.data)
    m_detection_delay                        0x200021a4   Data           4  app_button.o(.data)
    m_gpiote_user_id                         0x200021a8   Data           1  app_button.o(.data)
    m_detection_delay_timer_id               0x200021ac   Data           4  app_button.o(.data)
    m_pin_transition                         0x200021b0   Data           8  app_button.o(.data)
    .data                                    0x200021b8   Section       12  app_gpiote.o(.data)
    m_enabled_users_mask                     0x200021b8   Data           4  app_gpiote.o(.data)
    m_user_array_size                        0x200021bc   Data           1  app_gpiote.o(.data)
    m_user_count                             0x200021bd   Data           1  app_gpiote.o(.data)
    mp_users                                 0x200021c0   Data           4  app_gpiote.o(.data)
    .data                                    0x200021c4   Section       14  app_scheduler.o(.data)
    m_queue_event_headers                    0x200021c4   Data           4  app_scheduler.o(.data)
    m_queue_event_data                       0x200021c8   Data           4  app_scheduler.o(.data)
    m_queue_start_index                      0x200021cc   Data           1  app_scheduler.o(.data)
    m_queue_end_index                        0x200021cd   Data           1  app_scheduler.o(.data)
    m_queue_event_size                       0x200021ce   Data           2  app_scheduler.o(.data)
    m_queue_size                             0x200021d0   Data           2  app_scheduler.o(.data)
    .data                                    0x200021d4   Section       42  app_timer.o(.data)
    m_node_array_size                        0x200021d4   Data           1  app_timer.o(.data)
    mp_nodes                                 0x200021d8   Data           4  app_timer.o(.data)
    m_user_array_size                        0x200021dc   Data           1  app_timer.o(.data)
    mp_users                                 0x200021e0   Data           4  app_timer.o(.data)
    m_timer_id_head                          0x200021e4   Data           4  app_timer.o(.data)
    m_ticks_latest                           0x200021e8   Data           4  app_timer.o(.data)
    m_ticks_elapsed                          0x200021ec   Data           8  app_timer.o(.data)
    m_ticks_elapsed_q_read_ind               0x200021f4   Data           1  app_timer.o(.data)
    m_ticks_elapsed_q_write_ind              0x200021f5   Data           1  app_timer.o(.data)
    m_evt_schedule_func                      0x200021f8   Data           4  app_timer.o(.data)
    m_rtc1_running                           0x200021fc   Data           1  app_timer.o(.data)
    m_rtc1_reset                             0x200021fd   Data           1  app_timer.o(.data)
    .data                                    0x20002200   Section       24  softdevice_handler.o(.data)
    m_evt_schedule_func                      0x20002200   Data           4  softdevice_handler.o(.data)
    m_softdevice_enabled                     0x20002204   Data           1  softdevice_handler.o(.data)
    mp_ble_evt_buffer                        0x20002208   Data           4  softdevice_handler.o(.data)
    m_ble_evt_buffer_size                    0x2000220c   Data           2  softdevice_handler.o(.data)
    m_ble_evt_handler                        0x20002210   Data           4  softdevice_handler.o(.data)
    m_sys_evt_handler                        0x20002214   Data           4  softdevice_handler.o(.data)
    .bss                                     0x20002218   Section     1620  main.o(.bss)
    m_AD7746                                 0x20002218   Data          36  main.o(.bss)
    m_nus                                    0x2000223c   Data          28  main.o(.bss)
    dataToSend                               0x20002258   Data         512  main.o(.bss)
    app_gpiote_buf                           0x20002458   Data          20  main.o(.bss)
    APP_TIMER_BUF                            0x2000246c   Data         776  main.o(.bss)
    BLE_EVT_BUFFER                           0x20002774   Data          72  main.o(.bss)
    APP_SCHED_BUF                            0x200027bc   Data         176  main.o(.bss)
    .bss                                     0x2000286c   Section       40  sensoradc.o(.bss)
    adcData                                  0x2000286c   Data          40  sensoradc.o(.bss)
    .bss                                     0x20002894   Section       84  mpu_9150.o(.bss)
    .bss                                     0x200028e8   Section      304  a2035h.o(.bss)
    m_nus                                    0x200028e8   Data          28  a2035h.o(.bss)
    data_array                               0x20002904   Data          20  a2035h.o(.bss)
    tx_buf                                   0x20002918   Data         256  a2035h.o(.bss)
    .bss                                     0x20002a18   Section       48  nrf_pwm.o(.bss)
    pwm_next_value                           0x20002a18   Data          16  nrf_pwm.o(.bss)
    pwm_io_ch                                0x20002a28   Data          16  nrf_pwm.o(.bss)
    pwm_running                              0x20002a38   Data          16  nrf_pwm.o(.bss)
    .bss                                     0x20002a48   Section       60  ltc2943.o(.bss)
    .bss                                     0x20002a84   Section      247  ble_advertising.o(.bss)
    m_advdata                                0x20002a84   Data          48  ble_advertising.o(.bss)
    m_whitelist                              0x20002ab4   Data          16  ble_advertising.o(.bss)
    mp_whitelist_addr                        0x20002ac4   Data          32  ble_advertising.o(.bss)
    mp_whitelist_irk                         0x20002ae4   Data          32  ble_advertising.o(.bss)
    m_adv_modes_config                       0x20002b04   Data          32  ble_advertising.o(.bss)
    m_manuf_specific_data                    0x20002b24   Data          12  ble_advertising.o(.bss)
    m_manuf_data_array                       0x20002b30   Data          31  ble_advertising.o(.bss)
    m_service_data                           0x20002b50   Data          12  ble_advertising.o(.bss)
    m_service_data_array                     0x20002b5c   Data          31  ble_advertising.o(.bss)
    .bss                                     0x20002b7c   Section       28  ble_conn_params.o(.bss)
    m_conn_params_config                     0x20002b7c   Data          28  ble_conn_params.o(.bss)
    .bss                                     0x20002b98   Section      128  ble_debug_assert_handler.o(.bss)
    s_file_name                              0x20002b98   Data         128  ble_debug_assert_handler.o(.bss)
    .bss                                     0x20002c18   Section      295  device_manager_peripheral.o(.bss)
    m_peer_table                             0x20002c18   Data         196  device_manager_peripheral.o(.bss)
    m_bond_table                             0x20002cdc   Data          28  device_manager_peripheral.o(.bss)
    m_gatts_table                            0x20002cf8   Data          24  device_manager_peripheral.o(.bss)
    m_connection_table                       0x20002d10   Data          12  device_manager_peripheral.o(.bss)
    m_application_table                      0x20002d1c   Data          12  device_manager_peripheral.o(.bss)
    m_local_id_info                          0x20002d28   Data          23  device_manager_peripheral.o(.bss)
    .bss                                     0x20002d40   Section      220  pstorage.o(.bss)
    m_cmd_queue                              0x20002d40   Data         204  pstorage.o(.bss)
    m_app_table                              0x20002e0c   Data          16  pstorage.o(.bss)
    .bss                                     0x20002e1c   Section       80  spi_master.o(.bss)
    m_spi_master_instances                   0x20002e1c   Data          80  spi_master.o(.bss)
    .bss                                     0x20002e6c   Section       96  libspace.o(.bss)
    HEAP                                     0x20002ed0   Section     2048  arm_startup_nrf51.o(HEAP)
    Heap_Mem                                 0x20002ed0   Data        2048  arm_startup_nrf51.o(HEAP)
    STACK                                    0x200036d0   Section     2048  arm_startup_nrf51.o(STACK)
    Stack_Mem                                0x200036d0   Data        2048  arm_startup_nrf51.o(STACK)
    __initial_sp                             0x20003ed0   Data           0  arm_startup_nrf51.o(STACK)

    Global Symbols

    Symbol Name                              Value     Ov Type        Size  Object(Section)

    BuildAttributes$$THM_ISAv3M$S$PE$A:L22$X:L11$S22$IEEE1$IW$USESV6$~STKCKD$USESV7$~SHL$OTIME$ROPI$IEEEX$EBA8$UX$STANDARDLIB$REQ8$PRES8$EABIv2 0x00000000   Number         0  anon$$obj.o ABSOLUTE
    __ARM_use_no_argv                        0x00000000   Number         0  main.o ABSOLUTE
    _printf_flags                            0x00000000   Number         0  printf_stubs.o ABSOLUTE
    _printf_return_value                     0x00000000   Number         0  printf_stubs.o ABSOLUTE
    _printf_sizespec                         0x00000000   Number         0  printf_stubs.o ABSOLUTE
    _printf_widthprec                        0x00000000   Number         0  printf_stubs.o ABSOLUTE
    __ARM_exceptions_init                     - Undefined Weak Reference
    __alloca_initialize                       - Undefined Weak Reference
    __arm_preinit_                            - Undefined Weak Reference
    __cpp_initialize__aeabi_                  - Undefined Weak Reference
    __cxa_finalize                            - Undefined Weak Reference
    __rt_locale                               - Undefined Weak Reference
    __sigvec_lookup                           - Undefined Weak Reference
    _atexit_init                              - Undefined Weak Reference
    _call_atexit_fns                          - Undefined Weak Reference
    _clock_init                               - Undefined Weak Reference
    _fp_trap_init                             - Undefined Weak Reference
    _fp_trap_shutdown                         - Undefined Weak Reference
    _get_lc_collate                           - Undefined Weak Reference
    _get_lc_ctype                             - Undefined Weak Reference
    _get_lc_monetary                          - Undefined Weak Reference
    _get_lc_numeric                           - Undefined Weak Reference
    _get_lc_time                              - Undefined Weak Reference
    _getenv_init                              - Undefined Weak Reference
    _handle_redirection                       - Undefined Weak Reference
    _init_alloc                               - Undefined Weak Reference
    _init_user_alloc                          - Undefined Weak Reference
    _initio                                   - Undefined Weak Reference
    _printf_truncate_unsigned                 - Undefined Weak Reference
    _rand_init                                - Undefined Weak Reference
    _signal_finish                            - Undefined Weak Reference
    _signal_init                              - Undefined Weak Reference
    _terminate_alloc                          - Undefined Weak Reference
    _terminate_user_alloc                     - Undefined Weak Reference
    _terminateio                              - Undefined Weak Reference
    __Vectors_Size                           0x000000c0   Number         0  arm_startup_nrf51.o ABSOLUTE
    __Vectors                                0x00018000   Data           4  arm_startup_nrf51.o(RESET)
    __Vectors_End                            0x000180c0   Data           0  arm_startup_nrf51.o(RESET)
    __main                                   0x000180c1   Thumb Code     8  __main.o(!!!main)
    __scatterload                            0x000180c9   Thumb Code     0  __scatter.o(!!!scatter)
    __scatterload_rt2                        0x000180c9   Thumb Code    52  __scatter.o(!!!scatter)
    __scatterload_rt2_thumb_only             0x000180c9   Thumb Code     0  __scatter.o(!!!scatter)
    __scatterload_null                       0x000180d9   Thumb Code     0  __scatter.o(!!!scatter)
    __scatterload_zeroinit                   0x00018105   Thumb Code    28  __scatter_zi.o(!!handler_zi)
    _printf_percent                          0x00018121   Thumb Code     0  _printf_percent.o(.ARM.Collect$$_printf_percent$$00000000)
    _printf_x                                0x00018123   Thumb Code     0  _printf_x.o(.ARM.Collect$$_printf_percent$$0000000C)
    _printf_percent_end                      0x0001812d   Thumb Code     0  _printf_percent_end.o(.ARM.Collect$$_printf_percent$$00000017)
    __rt_lib_init                            0x00018131   Thumb Code     0  libinit.o(.ARM.Collect$$libinit$$00000000)
    __rt_lib_init_alloca_1                   0x00018133   Thumb Code     0  libinit2.o(.ARM.Collect$$libinit$$0000002E)
    __rt_lib_init_argv_1                     0x00018133   Thumb Code     0  libinit2.o(.ARM.Collect$$libinit$$0000002C)
    __rt_lib_init_atexit_1                   0x00018133   Thumb Code     0  libinit2.o(.ARM.Collect$$libinit$$0000001B)
    __rt_lib_init_clock_1                    0x00018133   Thumb Code     0  libinit2.o(.ARM.Collect$$libinit$$00000021)
    __rt_lib_init_cpp_1                      0x00018133   Thumb Code     0  libinit2.o(.ARM.Collect$$libinit$$00000032)
    __rt_lib_init_exceptions_1               0x00018133   Thumb Code     0  libinit2.o(.ARM.Collect$$libinit$$00000030)
    __rt_lib_init_fp_1                       0x00018133   Thumb Code     0  libinit2.o(.ARM.Collect$$libinit$$00000002)
    __rt_lib_init_fp_trap_1                  0x00018133   Thumb Code     0  libinit2.o(.ARM.Collect$$libinit$$0000001F)
    __rt_lib_init_getenv_1                   0x00018133   Thumb Code     0  libinit2.o(.ARM.Collect$$libinit$$00000023)
    __rt_lib_init_heap_1                     0x00018133   Thumb Code     0  libinit2.o(.ARM.Collect$$libinit$$0000000A)
    __rt_lib_init_lc_collate_1               0x00018133   Thumb Code     0  libinit2.o(.ARM.Collect$$libinit$$00000011)
    __rt_lib_init_lc_ctype_1                 0x00018133   Thumb Code     0  libinit2.o(.ARM.Collect$$libinit$$00000013)
    __rt_lib_init_lc_monetary_1              0x00018133   Thumb Code     0  libinit2.o(.ARM.Collect$$libinit$$00000015)
    __rt_lib_init_lc_numeric_1               0x00018133   Thumb Code     0  libinit2.o(.ARM.Collect$$libinit$$00000017)
    __rt_lib_init_lc_time_1                  0x00018133   Thumb Code     0  libinit2.o(.ARM.Collect$$libinit$$00000019)
    __rt_lib_init_preinit_1                  0x00018133   Thumb Code     0  libinit2.o(.ARM.Collect$$libinit$$00000004)
    __rt_lib_init_rand_1                     0x00018133   Thumb Code     0  libinit2.o(.ARM.Collect$$libinit$$0000000E)
    __rt_lib_init_return                     0x00018133   Thumb Code     0  libinit2.o(.ARM.Collect$$libinit$$00000033)
    __rt_lib_init_signal_1                   0x00018133   Thumb Code     0  libinit2.o(.ARM.Collect$$libinit$$0000001D)
    __rt_lib_init_stdio_1                    0x00018133   Thumb Code     0  libinit2.o(.ARM.Collect$$libinit$$00000025)
    __rt_lib_init_user_alloc_1               0x00018133   Thumb Code     0  libinit2.o(.ARM.Collect$$libinit$$0000000C)
    __rt_lib_shutdown                        0x00018135   Thumb Code     0  libshutdown.o(.ARM.Collect$$libshutdown$$00000000)
    __rt_lib_shutdown_cpp_1                  0x00018137   Thumb Code     0  libshutdown2.o(.ARM.Collect$$libshutdown$$00000002)
    __rt_lib_shutdown_fp_trap_1              0x00018137   Thumb Code     0  libshutdown2.o(.ARM.Collect$$libshutdown$$00000007)
    __rt_lib_shutdown_heap_1                 0x00018137   Thumb Code     0  libshutdown2.o(.ARM.Collect$$libshutdown$$0000000F)
    __rt_lib_shutdown_return                 0x00018137   Thumb Code     0  libshutdown2.o(.ARM.Collect$$libshutdown$$00000010)
    __rt_lib_shutdown_signal_1               0x00018137   Thumb Code     0  libshutdown2.o(.ARM.Collect$$libshutdown$$0000000A)
    __rt_lib_shutdown_stdio_1                0x00018137   Thumb Code     0  libshutdown2.o(.ARM.Collect$$libshutdown$$00000004)
    __rt_lib_shutdown_user_alloc_1           0x00018137   Thumb Code     0  libshutdown2.o(.ARM.Collect$$libshutdown$$0000000C)
    __rt_entry                               0x00018139   Thumb Code     0  __rtentry.o(.ARM.Collect$$rtentry$$00000000)
    __rt_entry_presh_1                       0x00018139   Thumb Code     0  __rtentry2.o(.ARM.Collect$$rtentry$$00000002)
    __rt_entry_sh                            0x00018139   Thumb Code     0  __rtentry4.o(.ARM.Collect$$rtentry$$00000004)
    __rt_entry_li                            0x0001813f   Thumb Code     0  __rtentry2.o(.ARM.Collect$$rtentry$$0000000A)
    __rt_entry_postsh_1                      0x0001813f   Thumb Code     0  __rtentry2.o(.ARM.Collect$$rtentry$$00000009)
    __rt_entry_main                          0x00018143   Thumb Code     0  __rtentry2.o(.ARM.Collect$$rtentry$$0000000D)
    __rt_entry_postli_1                      0x00018143   Thumb Code     0  __rtentry2.o(.ARM.Collect$$rtentry$$0000000C)
    __rt_exit                                0x0001814b   Thumb Code     0  rtexit.o(.ARM.Collect$$rtexit$$00000000)
    __rt_exit_ls                             0x0001814d   Thumb Code     0  rtexit2.o(.ARM.Collect$$rtexit$$00000003)
    __rt_exit_prels_1                        0x0001814d   Thumb Code     0  rtexit2.o(.ARM.Collect$$rtexit$$00000002)
    __rt_exit_exit                           0x00018151   Thumb Code     0  rtexit2.o(.ARM.Collect$$rtexit$$00000004)
    __asm___8_ds2401_c_2a9f9079__nrf_delay_us 0x00018159   Thumb Code    30  ds2401.o(.emb_text)
    __asm___10_MPU_9150_c_Ascale__nrf_delay_us 0x00018179   Thumb Code    30  mpu_9150.o(.emb_text)
    __asm___8_A2035H_c_7c68238a__nrf_delay_us 0x00018199   Thumb Code    30  a2035h.o(.emb_text)
    __asm___15_twi_hw_master_c_959ec897__nrf_delay_us 0x000181b9   Thumb Code    30  twi_hw_master.o(.emb_text)
    __asm___11_nrf_delay_c_532987f3__nrf_delay_us 0x000181d9   Thumb Code    30  nrf_delay.o(.emb_text)
    __asm___11_app_timer_c_cd27f9c3__nrf_delay_us 0x000181f9   Thumb Code    30  app_timer.o(.emb_text)
    __aeabi_memcpy4                          0x00018219   Thumb Code    56  rt_memcpy.o(.emb_text)
    __aeabi_memcpy8                          0x00018219   Thumb Code     0  rt_memcpy.o(.emb_text)
    Reset_Handler                            0x00018251   Thumb Code    26  arm_startup_nrf51.o(.text)
    NMI_Handler                              0x0001826b   Thumb Code     2  arm_startup_nrf51.o(.text)
    HardFault_Handler                        0x0001826d   Thumb Code     2  arm_startup_nrf51.o(.text)
    SVC_Handler                              0x0001826f   Thumb Code     2  arm_startup_nrf51.o(.text)
    PendSV_Handler                           0x00018271   Thumb Code     2  arm_startup_nrf51.o(.text)
    SysTick_Handler                          0x00018273   Thumb Code     2  arm_startup_nrf51.o(.text)
    CCM_AAR_IRQHandler                       0x00018275   Thumb Code     0  arm_startup_nrf51.o(.text)
    ECB_IRQHandler                           0x00018275   Thumb Code     0  arm_startup_nrf51.o(.text)
    LPCOMP_IRQHandler                        0x00018275   Thumb Code     0  arm_startup_nrf51.o(.text)
    POWER_CLOCK_IRQHandler                   0x00018275   Thumb Code     0  arm_startup_nrf51.o(.text)
    QDEC_IRQHandler                          0x00018275   Thumb Code     0  arm_startup_nrf51.o(.text)
    RADIO_IRQHandler                         0x00018275   Thumb Code     0  arm_startup_nrf51.o(.text)
    RNG_IRQHandler                           0x00018275   Thumb Code     0  arm_startup_nrf51.o(.text)
    RTC0_IRQHandler                          0x00018275   Thumb Code     0  arm_startup_nrf51.o(.text)
    SWI1_IRQHandler                          0x00018275   Thumb Code     0  arm_startup_nrf51.o(.text)
    SWI3_IRQHandler                          0x00018275   Thumb Code     0  arm_startup_nrf51.o(.text)
    SWI4_IRQHandler                          0x00018275   Thumb Code     0  arm_startup_nrf51.o(.text)
    SWI5_IRQHandler                          0x00018275   Thumb Code     0  arm_startup_nrf51.o(.text)
    TEMP_IRQHandler                          0x00018275   Thumb Code     0  arm_startup_nrf51.o(.text)
    TIMER0_IRQHandler                        0x00018275   Thumb Code     0  arm_startup_nrf51.o(.text)
    TIMER1_IRQHandler                        0x00018275   Thumb Code     0  arm_startup_nrf51.o(.text)
    WDT_IRQHandler                           0x00018275   Thumb Code     0  arm_startup_nrf51.o(.text)
    __user_initial_stackheap                 0x00018279   Thumb Code     0  arm_startup_nrf51.o(.text)
    __2sprintf                               0x000182a5   Thumb Code    36  noretval__2sprintf.o(.text)
    _printf_pre_padding                      0x000182cd   Thumb Code    44  _printf_pad.o(.text)
    _printf_post_padding                     0x000182f9   Thumb Code    34  _printf_pad.o(.text)
    _printf_int_hex                          0x0001831d   Thumb Code    84  _printf_hex_int.o(.text)
    _printf_longlong_hex                     0x0001831d   Thumb Code     0  _printf_hex_int.o(.text)
    __printf                                 0x00018375   Thumb Code   306  __printf_flags_wp.o(.text)
    memcmp                                   0x000184ad   Thumb Code    90  memcmp.o(.text)
    __aeabi_memcpy                           0x00018507   Thumb Code   130  rt_memcpy.o(.text)
    __rt_memcpy                              0x00018507   Thumb Code     0  rt_memcpy.o(.text)
    _memset_w                                0x00018589   Thumb Code    26  rt_memclr.o(.text)
    _memset                                  0x000185a3   Thumb Code    30  rt_memclr.o(.text)
    __aeabi_memclr                           0x000185c1   Thumb Code     4  rt_memclr.o(.text)
    __rt_memclr                              0x000185c1   Thumb Code     0  rt_memclr.o(.text)
    __aeabi_memclr4                          0x000185c5   Thumb Code     0  rt_memclr.o(.text)
    __aeabi_memclr8                          0x000185c5   Thumb Code     0  rt_memclr.o(.text)
    __rt_memclr_w                            0x000185c5   Thumb Code     4  rt_memclr.o(.text)
    strncpy                                  0x000185c9   Thumb Code   104  strncpy.o(.text)
    __aeabi_uidiv                            0x00018635   Thumb Code     0  aeabi_sdiv.o(.text)
    __aeabi_uidivmod                         0x00018635   Thumb Code    20  aeabi_sdiv.o(.text)
    __aeabi_idiv                             0x00018649   Thumb Code     0  aeabi_sdiv.o(.text)
    __aeabi_idivmod                          0x00018649   Thumb Code   326  aeabi_sdiv.o(.text)
    __use_two_region_memory                  0x0001878f   Thumb Code     2  heapauxi.o(.text)
    __rt_heap_escrow$2region                 0x00018791   Thumb Code     2  heapauxi.o(.text)
    __rt_heap_expand$2region                 0x00018793   Thumb Code     2  heapauxi.o(.text)
    __aeabi_d2f                              0x00018795   Thumb Code     0  d2f.o(.text)
    _d2f                                     0x00018795   Thumb Code   120  d2f.o(.text)
    __aeabi_dadd                             0x00018b09   Thumb Code     0  daddsub.o(.text)
    _dadd                                    0x00018b09   Thumb Code    26  daddsub.o(.text)
    __aeabi_dsub                             0x00018b23   Thumb Code     0  daddsub.o(.text)
    _dsub                                    0x00018b23   Thumb Code    22  daddsub.o(.text)
    __aeabi_drsub                            0x00018b39   Thumb Code     0  daddsub.o(.text)
    _drsb                                    0x00018b39   Thumb Code    28  daddsub.o(.text)
    __aeabi_ddiv                             0x00018b69   Thumb Code     0  ddiv.o(.text)
    _ddiv                                    0x00018b69   Thumb Code  1072  ddiv.o(.text)
    _drdiv                                   0x00018f99   Thumb Code    20  ddiv.o(.text)
    __aeabi_d2uiz                            0x00018fb1   Thumb Code     0  dfixui.o(.text)
    _dfixu                                   0x00018fb1   Thumb Code    68  dfixui.o(.text)
    __aeabi_i2d_normalise                    0x00018ff9   Thumb Code    66  dflti.o(.text)
    __aeabi_i2d                              0x0001903b   Thumb Code    16  dflti.o(.text)
    _dflt                                    0x0001903b   Thumb Code     0  dflti.o(.text)
    __aeabi_ui2d                             0x0001904b   Thumb Code     6  dflti.o(.text)
    _dfltu                                   0x0001904b   Thumb Code     0  dflti.o(.text)
    __aeabi_dmul                             0x00019051   Thumb Code     0  dmul.o(.text)
    _dmul                                    0x00019051   Thumb Code   558  dmul.o(.text)
    __aeabi_f2d                              0x00019299   Thumb Code     0  f2d.o(.text)
    _f2d                                     0x00019299   Thumb Code    80  f2d.o(.text)
    __aeabi_fdiv                             0x000192ed   Thumb Code     0  fdiv.o(.text)
    _fdiv                                    0x000192ed   Thumb Code   334  fdiv.o(.text)
    _frdiv                                   0x0001943b   Thumb Code     8  fdiv.o(.text)
    __aeabi_i2f_normalise                    0x0001944d   Thumb Code    72  fflti.o(.text)
    __aeabi_i2f                              0x00019495   Thumb Code    16  fflti.o(.text)
    _fflt                                    0x00019495   Thumb Code     0  fflti.o(.text)
    __aeabi_ui2f                             0x000194a5   Thumb Code     6  fflti.o(.text)
    _ffltu                                   0x000194a5   Thumb Code     0  fflti.o(.text)
    _printf_int_common                       0x000194ab   Thumb Code   176  _printf_intcommon.o(.text)
    _printf_char_common                      0x00019567   Thumb Code    32  _printf_char_common.o(.text)
    _sputc                                   0x0001958d   Thumb Code    10  _sputc.o(.text)
    __user_libspace                          0x00019599   Thumb Code     8  libspace.o(.text)
    __user_perproc_libspace                  0x00019599   Thumb Code     0  libspace.o(.text)
    __user_perthread_libspace                0x00019599   Thumb Code     0  libspace.o(.text)
    __user_setup_stackheap                   0x000195a1   Thumb Code    62  sys_stackheap_outer.o(.text)
    exit                                     0x000195df   Thumb Code    16  exit.o(.text)
    _sys_exit                                0x000195f1   Thumb Code     8  sys_exit.o(.text)
    __I$use$semihosting                      0x000195fd   Thumb Code     0  use_no_semi.o(.text)
    __use_no_semihosting_swi                 0x000195fd   Thumb Code     2  use_no_semi.o(.text)
    __decompress                             0x000195ff   Thumb Code     0  __dczerorl2.o(.text)
    __decompress1                            0x000195ff   Thumb Code    86  __dczerorl2.o(.text)
    __semihosting_library_function           0x000195ff   Thumb Code     0  indicate_semi.o(.text)
    ADC_IRQHandler                           0x00019655   Thumb Code   208  sensoradc.o(i.ADC_IRQHandler)
    GPIOTE_IRQHandler                        0x000197d1   Thumb Code   200  app_gpiote.o(i.GPIOTE_IRQHandler)
    I2C_Init                                 0x000198ad   Thumb Code    16  communication.o(i.I2C_Init)
    I2C_Read                                 0x000198bd   Thumb Code    52  communication.o(i.I2C_Read)
    I2C_Write                                0x000198f1   Thumb Code    50  communication.o(i.I2C_Write)
    MPL3115A2_getAltitude                    0x00019925   Thumb Code   178  mpl3115.o(i.MPL3115A2_getAltitude)
    MPL3115A2_init                           0x000199dd   Thumb Code    44  mpl3115.o(i.MPL3115A2_init)
    MPL3115A2_read8                          0x00019a09   Thumb Code    86  mpl3115.o(i.MPL3115A2_read8)
    MPL3115A2_readBytes_                     0x00019a5f   Thumb Code   104  mpl3115.o(i.MPL3115A2_readBytes_)
    MPL3115A2_write8                         0x00019ac7   Thumb Code   118  mpl3115.o(i.MPL3115A2_write8)
    MPU9150_readByte                         0x00019b3d   Thumb Code    24  mpu_9150.o(i.MPU9150_readByte)
    MPU9150_readBytes                        0x00019b55   Thumb Code    28  mpu_9150.o(i.MPU9150_readBytes)
    MPU9150_readBytes_                       0x00019b71   Thumb Code    94  mpu_9150.o(i.MPU9150_readBytes_)
    MPU9150_writeByte                        0x00019bcf   Thumb Code    22  mpu_9150.o(i.MPU9150_writeByte)
    MPU9150_writeByte_                       0x00019be5   Thumb Code    56  mpu_9150.o(i.MPU9150_writeByte_)
    RTC1_IRQHandler                          0x00019dc1   Thumb Code    34  app_timer.o(i.RTC1_IRQHandler)
    SPI0_TWI0_IRQHandler                     0x00019de9   Thumb Code    44  spi_master.o(i.SPI0_TWI0_IRQHandler)
    SPI1_TWI1_IRQHandler                     0x00019e1d   Thumb Code    46  spi_master.o(i.SPI1_TWI1_IRQHandler)
    SWI0_IRQHandler                          0x00019e55   Thumb Code     8  app_timer.o(i.SWI0_IRQHandler)
    SWI2_IRQHandler                          0x00019e5d   Thumb Code    50  softdevice_handler.o(i.SWI2_IRQHandler)
    SystemInit                               0x00019e95   Thumb Code    38  system_nrf51.o(i.SystemInit)
    TIMER2_IRQHandler                        0x00019ecd   Thumb Code   862  nrf_pwm.o(i.TIMER2_IRQHandler)
    UART0_IRQHandler                         0x0001a265   Thumb Code   148  app_uart.o(i.UART0_IRQHandler)
    __ARM_common_switch8                     0x0001a30d   Thumb Code    28  inv_mpu.o(i.__ARM_common_switch8)
    _is_digit                                0x0001a329   Thumb Code    14  __printf_wp.o(i._is_digit)
    action_tx_stop                           0x0001a371   Thumb Code    28  app_uart.o(i.action_tx_stop)
    ad7746_on_write_config_callback          0x0001a3bd   Thumb Code     2  main.o(i.ad7746_on_write_config_callback)
    app_button_enable                        0x0001a5f9   Thumb Code    24  app_button.o(i.app_button_enable)
    app_button_init                          0x0001a619   Thumb Code   122  app_button.o(i.app_button_init)
    app_error_handler                        0x0001a6b1   Thumb Code    20  main.o(i.app_error_handler)
    app_gpiote_init                          0x0001a6e1   Thumb Code   116  app_gpiote.o(i.app_gpiote_init)
    app_gpiote_pins_state_get                0x0001a771   Thumb Code    52  app_gpiote.o(i.app_gpiote_pins_state_get)
    app_gpiote_user_enable                   0x0001a7b1   Thumb Code   226  app_gpiote.o(i.app_gpiote_user_enable)
    app_gpiote_user_register                 0x0001a8ad   Thumb Code   138  app_gpiote.o(i.app_gpiote_user_register)
    app_on_adv_timeout                       0x0001a96d   Thumb Code   110  main.o(i.app_on_adv_timeout)
    app_on_connect                           0x0001a9e1   Thumb Code    84  main.o(i.app_on_connect)
    app_on_disconnect                        0x0001aa35   Thumb Code    32  main.o(i.app_on_disconnect)
    app_sched_execute                        0x0001aac9   Thumb Code    30  app_scheduler.o(i.app_sched_execute)
    app_sched_init                           0x0001aae9   Thumb Code    66  app_scheduler.o(i.app_sched_init)
    app_timer_create                         0x0001ab45   Thumb Code   108  app_timer.o(i.app_timer_create)
    app_timer_init                           0x0001abb9   Thumb Code   204  app_timer.o(i.app_timer_init)
    app_timer_start                          0x0001aca9   Thumb Code    98  app_timer.o(i.app_timer_start)
    app_timer_stop                           0x0001ad15   Thumb Code    60  app_timer.o(i.app_timer_stop)
    app_uart_get                             0x0001ad59   Thumb Code    34  app_uart.o(i.app_uart_get)
    app_uart_init                            0x0001ad85   Thumb Code   468  app_uart.o(i.app_uart_init)
    assert_nrf_callback                      0x0001b031   Thumb Code    28  main.o(i.assert_nrf_callback)
    ble_AD7746_init                          0x0001b055   Thumb Code   140  ble_ad7746.o(i.ble_AD7746_init)
    ble_AD7746_on_ble_evt                    0x0001b0e9   Thumb Code    58  ble_ad7746.o(i.ble_AD7746_on_ble_evt)
    ble_AD7746_send_temp_notify              0x0001b125   Thumb Code   122  ble_ad7746.o(i.ble_AD7746_send_temp_notify)
    ble_advdata_set                          0x0001b1a5   Thumb Code   122  ble_advdata.o(i.ble_advdata_set)
    ble_advertising_init                     0x0001b221   Thumb Code   358  ble_advertising.o(i.ble_advertising_init)
    ble_advertising_on_ble_evt               0x0001b3c1   Thumb Code   272  ble_advertising.o(i.ble_advertising_on_ble_evt)
    ble_advertising_on_sys_evt               0x0001b4f5   Thumb Code    70  ble_advertising.o(i.ble_advertising_on_sys_evt)
    ble_advertising_start                    0x0001b559   Thumb Code   546  ble_advertising.o(i.ble_advertising_start)
    ble_conn_params_init                     0x0001b7a9   Thumb Code    90  ble_conn_params.o(i.ble_conn_params_init)
    ble_conn_params_on_ble_evt               0x0001b821   Thumb Code    62  ble_conn_params.o(i.ble_conn_params_on_ble_evt)
    ble_debug_assert_handler                 0x0001b861   Thumb Code    46  ble_debug_assert_handler.o(i.ble_debug_assert_handler)
    ble_nus_string_send                      0x0001b8c9   Thumb Code    84  ble_nus.o(i.ble_nus_string_send)
    bond_data_load                           0x0001b9c5   Thumb Code    62  device_manager_peripheral.o(i.bond_data_load)
    bsp_button_is_pressed                    0x0001ba61   Thumb Code    48  bsp.o(i.bsp_button_is_pressed)
    bsp_buttons_enable                       0x0001ba99   Thumb Code   166  bsp.o(i.bsp_buttons_enable)
    bsp_event_to_button_assign               0x0001bb45   Thumb Code    18  bsp.o(i.bsp_event_to_button_assign)
    bsp_indication_set                       0x0001bb5d   Thumb Code    30  bsp.o(i.bsp_indication_set)
    bsp_init                                 0x0001bb81   Thumb Code   150  bsp.o(i.bsp_init)
    cap_char_add                             0x0001c115   Thumb Code   318  ble_ad7746.o(i.cap_char_add)
    config_char_add                          0x0001c589   Thumb Code   236  ble_ad7746.o(i.config_char_add)
    dm_ble_evt_handler                       0x0001cccd   Thumb Code  1562  device_manager_peripheral.o(i.dm_ble_evt_handler)
    dm_handle_initialize                     0x0001d305   Thumb Code    24  device_manager_peripheral.o(i.dm_handle_initialize)
    dm_init                                  0x0001d321   Thumb Code   230  device_manager_peripheral.o(i.dm_init)
    dm_register                              0x0001d625   Thumb Code   176  device_manager_peripheral.o(i.dm_register)
    ds2401_initAndRead                       0x0001d6e1   Thumb Code   150  ds2401.o(i.ds2401_initAndRead)
    initA2035H                               0x0001dc8d   Thumb Code   176  a2035h.o(i.initA2035H)
    initAK8975A                              0x0001dd5d   Thumb Code   142  mpu_9150.o(i.initAK8975A)
    initMPU9150                              0x0001ddf1   Thumb Code   386  mpu_9150.o(i.initMPU9150)
    intern_softdevice_events_execute         0x0001df9d   Thumb Code   168  softdevice_handler.o(i.intern_softdevice_events_execute)
    ltc294x_get_charge_counter               0x0001e349   Thumb Code    38  ltc2943.o(i.ltc294x_get_charge_counter)
    ltc294x_get_current                      0x0001e379   Thumb Code   126  ltc2943.o(i.ltc294x_get_current)
    ltc294x_get_temperature                  0x0001e405   Thumb Code    54  ltc2943.o(i.ltc294x_get_temperature)
    ltc294x_get_voltage                      0x0001e44d   Thumb Code    56  ltc2943.o(i.ltc294x_get_voltage)
    ltc294x_init                             0x0001e491   Thumb Code   186  ltc2943.o(i.ltc294x_init)
    ltc294x_read_charge_register             0x0001e561   Thumb Code    40  ltc2943.o(i.ltc294x_read_charge_register)
    ltc294x_reset                            0x0001e5d9   Thumb Code   134  ltc2943.o(i.ltc294x_reset)
    main                                     0x0001e6bd   Thumb Code   102  main.o(i.main)
    nrf_delay_ms                             0x0001e855   Thumb Code    24  nrf_delay.o(i.nrf_delay_ms)
    pstorage_access_status_get               0x0001ed95   Thumb Code    36  pstorage.o(i.pstorage_access_status_get)
    pstorage_block_identifier_get            0x0001edc1   Thumb Code   136  pstorage.o(i.pstorage_block_identifier_get)
    pstorage_clear                           0x0001ee51   Thumb Code   166  pstorage.o(i.pstorage_clear)
    pstorage_init                            0x0001ef35   Thumb Code   128  pstorage.o(i.pstorage_init)
    pstorage_load                            0x0001efd1   Thumb Code   226  pstorage.o(i.pstorage_load)
    pstorage_register                        0x0001f0bd   Thumb Code   306  pstorage.o(i.pstorage_register)
    pstorage_store                           0x0001f201   Thumb Code   202  pstorage.o(i.pstorage_store)
    pstorage_sys_event_handler               0x0001f2d5   Thumb Code   454  pstorage.o(i.pstorage_sys_event_handler)
    pstorage_update                          0x0001f4d9   Thumb Code   202  pstorage.o(i.pstorage_update)
    readMagData                              0x0001f5e5   Thumb Code   378  mpu_9150.o(i.readMagData)
    readMagFloatUT                           0x0001f765   Thumb Code   112  mpu_9150.o(i.readMagFloatUT)
    resetMPU9150                             0x0001f89d   Thumb Code    20  mpu_9150.o(i.resetMPU9150)
    resumeSendData                           0x0001f8b5   Thumb Code   178  main.o(i.resumeSendData)
    softdevice_assertion_handler             0x0001fbf5   Thumb Code    18  softdevice_handler.o(i.softdevice_assertion_handler)
    softdevice_ble_evt_handler_set           0x0001fc09   Thumb Code    18  softdevice_handler.o(i.softdevice_ble_evt_handler_set)
    softdevice_handler_init                  0x0001fc21   Thumb Code    84  softdevice_handler.o(i.softdevice_handler_init)
    softdevice_sys_evt_handler_set           0x0001fc89   Thumb Code    18  softdevice_handler.o(i.softdevice_sys_evt_handler_set)
    someother_module_init                    0x0001fca1   Thumb Code   180  main.o(i.someother_module_init)
    temp_char_add                            0x000200e1   Thumb Code   318  ble_ad7746.o(i.temp_char_add)
    twi_master_init                          0x00020771   Thumb Code    88  twi_hw_master.o(i.twi_master_init)
    twi_master_transfer                      0x000208ed   Thumb Code    70  twi_hw_master.o(i.twi_master_transfer)
    uart_event_handle_withBle                0x00020a25   Thumb Code   244  a2035h.o(i.uart_event_handle_withBle)
    wait                                     0x00020dc1   Thumb Code    34  mpu_9150.o(i.wait)
    __aeabi_fadd                             0x00020e95   Thumb Code     0  faddsub.o(x$fpl$fadd)
    _fadd                                    0x00020e95   Thumb Code   134  faddsub.o(x$fpl$fadd)
    __aeabi_fmul                             0x00020f21   Thumb Code     0  fmul.o(x$fpl$fmul)
    _fmul                                    0x00020f21   Thumb Code   172  fmul.o(x$fpl$fmul)
    __aeabi_fsub                             0x00020fd1   Thumb Code     0  faddsub.o(x$fpl$fsub)
    _fsub                                    0x00020fd1   Thumb Code   204  faddsub.o(x$fpl$fsub)
    __I$use$fp                               0x000210a0   Number         0  usenofp.o(x$fpl$usenofp)
    m_service_context_store                  0x000210c8   Data          16  device_manager_peripheral.o(.constdata)
    m_service_context_load                   0x000210d8   Data          16  device_manager_peripheral.o(.constdata)
    m_service_context_apply                  0x000210e8   Data          16  device_manager_peripheral.o(.constdata)
    m_context_init_len                       0x000210f8   Data           4  device_manager_peripheral.o(.constdata)
    Region$$Table$$Base                      0x000211fc   Number         0  anon$$obj.o(Region$$Table)
    Region$$Table$$Limit                     0x0002121c   Number         0  anon$$obj.o(Region$$Table)
    lastSendIndex                            0x20002020   Data           4  main.o(.data)
    currStoreIndex                           0x20002034   Data           4  sensoradc.o(.data)
    maxSeqSamples                            0x20002038   Data           4  sensoradc.o(.data)
    currentMeasureInput                      0x2000203c   Data           1  sensoradc.o(.data)
    blockFinishCallback                      0x20002040   Data           4  sensoradc.o(.data)
    ds2401_id                                0x20002044   Data           8  ds2401.o(.data)
    Ascale                                   0x2000204c   Data           1  mpu_9150.o(.data)
    Gscale                                   0x2000204d   Data           1  mpu_9150.o(.data)
    aRes                                     0x20002050   Data           4  mpu_9150.o(.data)
    gRes                                     0x20002054   Data           4  mpu_9150.o(.data)
    mRes                                     0x20002058   Data           4  mpu_9150.o(.data)
    accelCount                               0x2000205c   Data           6  mpu_9150.o(.data)
    gyroCount                                0x20002062   Data           6  mpu_9150.o(.data)
    magCount                                 0x20002068   Data           6  mpu_9150.o(.data)
    ax                                       0x20002070   Data           4  mpu_9150.o(.data)
    ay                                       0x20002074   Data           4  mpu_9150.o(.data)
    az                                       0x20002078   Data           4  mpu_9150.o(.data)
    gx                                       0x2000207c   Data           4  mpu_9150.o(.data)
    gy                                       0x20002080   Data           4  mpu_9150.o(.data)
    gz                                       0x20002084   Data           4  mpu_9150.o(.data)
    mx                                       0x20002088   Data           4  mpu_9150.o(.data)
    my                                       0x2000208c   Data           4  mpu_9150.o(.data)
    mz                                       0x20002090   Data           4  mpu_9150.o(.data)
    tempCount                                0x20002094   Data           2  mpu_9150.o(.data)
    temperature                              0x20002098   Data           4  mpu_9150.o(.data)
    delt_t                                   0x2000209c   Data           4  mpu_9150.o(.data)
    count                                    0x200020a0   Data           4  mpu_9150.o(.data)
    pitch                                    0x200020a4   Data           4  mpu_9150.o(.data)
    yaw                                      0x200020a8   Data           4  mpu_9150.o(.data)
    roll                                     0x200020ac   Data           4  mpu_9150.o(.data)
    deltat                                   0x200020b0   Data           4  mpu_9150.o(.data)
    lastUpdate                               0x200020b4   Data           4  mpu_9150.o(.data)
    firstUpdate                              0x200020b8   Data           4  mpu_9150.o(.data)
    Now                                      0x200020bc   Data           4  mpu_9150.o(.data)
    q                                        0x200020c0   Data          16  mpu_9150.o(.data)
    SystemCoreClock                          0x2000211c   Data           4  system_nrf51.o(.data)
    magCalibration                           0x20002894   Data          12  mpu_9150.o(.bss)
    magbias                                  0x200028a0   Data          12  mpu_9150.o(.bss)
    gyroBias                                 0x200028ac   Data          12  mpu_9150.o(.bss)
    accelBias                                0x200028b8   Data          12  mpu_9150.o(.bss)
    SelfTest                                 0x200028c4   Data          24  mpu_9150.o(.bss)
    eInt                                     0x200028dc   Data          12  mpu_9150.o(.bss)
    ltc2943_client                           0x20002a48   Data          24  ltc2943.o(.bss)
    ltc2943_info                             0x20002a60   Data          36  ltc2943.o(.bss)
    __libspace_start                         0x20002e6c   Data          96  libspace.o(.bss)
    __temporary_stack_top$libspace           0x20002ecc   Data           0  libspace.o(.bss)



==============================================================================

Memory Map of the image

  Image Entry point : 0x000180c1

  Load Region LR_IROM1 (Base: 0x00018000, Size: 0x00009434, Max: 0x00028000, ABSOLUTE, COMPRESSED[0x00009250])

    Execution Region ER_IROM1 (Base: 0x00018000, Size: 0x0000921c, Max: 0x00028000, ABSOLUTE)

    Base Addr    Size         Type   Attr      Idx    E Section Name        Object

    0x00018000   0x000000c0   Data   RO         1794    RESET               arm_startup_nrf51.o
    0x000180c0   0x00000008   Code   RO         3701  * !!!main             c_p.l(__main.o)
    0x000180c8   0x0000003c   Code   RO         3988    !!!scatter          c_p.l(__scatter.o)
    0x00018104   0x0000001c   Code   RO         3990    !!handler_zi        c_p.l(__scatter_zi.o)
    0x00018120   0x00000002   Code   RO         3682    .ARM.Collect$$_printf_percent$$00000000  c_p.l(_printf_percent.o)
    0x00018122   0x0000000a   Code   RO         3681    .ARM.Collect$$_printf_percent$$0000000C  c_p.l(_printf_x.o)
    0x0001812c   0x00000004   Code   RO         3776    .ARM.Collect$$_printf_percent$$00000017  c_p.l(_printf_percent_end.o)
    0x00018130   0x00000002   Code   RO         3856    .ARM.Collect$$libinit$$00000000  c_p.l(libinit.o)
    0x00018132   0x00000000   Code   RO         3869    .ARM.Collect$$libinit$$00000002  c_p.l(libinit2.o)
    0x00018132   0x00000000   Code   RO         3871    .ARM.Collect$$libinit$$00000004  c_p.l(libinit2.o)
    0x00018132   0x00000000   Code   RO         3874    .ARM.Collect$$libinit$$0000000A  c_p.l(libinit2.o)
    0x00018132   0x00000000   Code   RO         3876    .ARM.Collect$$libinit$$0000000C  c_p.l(libinit2.o)
    0x00018132   0x00000000   Code   RO         3878    .ARM.Collect$$libinit$$0000000E  c_p.l(libinit2.o)
    0x00018132   0x00000000   Code   RO         3881    .ARM.Collect$$libinit$$00000011  c_p.l(libinit2.o)
    0x00018132   0x00000000   Code   RO         3883    .ARM.Collect$$libinit$$00000013  c_p.l(libinit2.o)
    0x00018132   0x00000000   Code   RO         3885    .ARM.Collect$$libinit$$00000015  c_p.l(libinit2.o)
    0x00018132   0x00000000   Code   RO         3887    .ARM.Collect$$libinit$$00000017  c_p.l(libinit2.o)
    0x00018132   0x00000000   Code   RO         3889    .ARM.Collect$$libinit$$00000019  c_p.l(libinit2.o)
    0x00018132   0x00000000   Code   RO         3891    .ARM.Collect$$libinit$$0000001B  c_p.l(libinit2.o)
    0x00018132   0x00000000   Code   RO         3893    .ARM.Collect$$libinit$$0000001D  c_p.l(libinit2.o)
    0x00018132   0x00000000   Code   RO         3895    .ARM.Collect$$libinit$$0000001F  c_p.l(libinit2.o)
    0x00018132   0x00000000   Code   RO         3897    .ARM.Collect$$libinit$$00000021  c_p.l(libinit2.o)
    0x00018132   0x00000000   Code   RO         3899    .ARM.Collect$$libinit$$00000023  c_p.l(libinit2.o)
    0x00018132   0x00000000   Code   RO         3901    .ARM.Collect$$libinit$$00000025  c_p.l(libinit2.o)
    0x00018132   0x00000000   Code   RO         3905    .ARM.Collect$$libinit$$0000002C  c_p.l(libinit2.o)
    0x00018132   0x00000000   Code   RO         3907    .ARM.Collect$$libinit$$0000002E  c_p.l(libinit2.o)
    0x00018132   0x00000000   Code   RO         3909    .ARM.Collect$$libinit$$00000030  c_p.l(libinit2.o)
    0x00018132   0x00000000   Code   RO         3911    .ARM.Collect$$libinit$$00000032  c_p.l(libinit2.o)
    0x00018132   0x00000002   Code   RO         3912    .ARM.Collect$$libinit$$00000033  c_p.l(libinit2.o)
    0x00018134   0x00000002   Code   RO         3943    .ARM.Collect$$libshutdown$$00000000  c_p.l(libshutdown.o)
    0x00018136   0x00000000   Code   RO         3969    .ARM.Collect$$libshutdown$$00000002  c_p.l(libshutdown2.o)
    0x00018136   0x00000000   Code   RO         3971    .ARM.Collect$$libshutdown$$00000004  c_p.l(libshutdown2.o)
    0x00018136   0x00000000   Code   RO         3974    .ARM.Collect$$libshutdown$$00000007  c_p.l(libshutdown2.o)
    0x00018136   0x00000000   Code   RO         3977    .ARM.Collect$$libshutdown$$0000000A  c_p.l(libshutdown2.o)
    0x00018136   0x00000000   Code   RO         3979    .ARM.Collect$$libshutdown$$0000000C  c_p.l(libshutdown2.o)
    0x00018136   0x00000000   Code   RO         3982    .ARM.Collect$$libshutdown$$0000000F  c_p.l(libshutdown2.o)
    0x00018136   0x00000002   Code   RO         3983    .ARM.Collect$$libshutdown$$00000010  c_p.l(libshutdown2.o)
    0x00018138   0x00000000   Code   RO         3761    .ARM.Collect$$rtentry$$00000000  c_p.l(__rtentry.o)
    0x00018138   0x00000000   Code   RO         3806    .ARM.Collect$$rtentry$$00000002  c_p.l(__rtentry2.o)
    0x00018138   0x00000006   Code   RO         3818    .ARM.Collect$$rtentry$$00000004  c_p.l(__rtentry4.o)
    0x0001813e   0x00000000   Code   RO         3808    .ARM.Collect$$rtentry$$00000009  c_p.l(__rtentry2.o)
    0x0001813e   0x00000004   Code   RO         3809    .ARM.Collect$$rtentry$$0000000A  c_p.l(__rtentry2.o)
    0x00018142   0x00000000   Code   RO         3811    .ARM.Collect$$rtentry$$0000000C  c_p.l(__rtentry2.o)
    0x00018142   0x00000008   Code   RO         3812    .ARM.Collect$$rtentry$$0000000D  c_p.l(__rtentry2.o)
    0x0001814a   0x00000002   Code   RO         3860    .ARM.Collect$$rtexit$$00000000  c_p.l(rtexit.o)
    0x0001814c   0x00000000   Code   RO         3916    .ARM.Collect$$rtexit$$00000002  c_p.l(rtexit2.o)
    0x0001814c   0x00000004   Code   RO         3917    .ARM.Collect$$rtexit$$00000003  c_p.l(rtexit2.o)
    0x00018150   0x00000006   Code   RO         3918    .ARM.Collect$$rtexit$$00000004  c_p.l(rtexit2.o)
    0x00018156   0x00000002   PAD
    0x00018158   0x0000001e   Code   RO          677    .emb_text           ds2401.o
    0x00018176   0x00000002   PAD
    0x00018178   0x0000001e   Code   RO          730    .emb_text           mpu_9150.o
    0x00018196   0x00000002   PAD
    0x00018198   0x0000001e   Code   RO         1286    .emb_text           a2035h.o
    0x000181b6   0x00000002   PAD
    0x000181b8   0x0000001e   Code   RO         2953    .emb_text           twi_hw_master.o
    0x000181d6   0x00000002   PAD
    0x000181d8   0x0000001e   Code   RO         3038    .emb_text           nrf_delay.o
    0x000181f6   0x00000002   PAD
    0x000181f8   0x0000001e   Code   RO         3280    .emb_text           app_timer.o
    0x00018216   0x00000002   PAD
    0x00018218   0x00000038   Code   RO         3687    .emb_text           c_p.l(rt_memcpy.o)
    0x00018250   0x00000054   Code   RO         1795    .text               arm_startup_nrf51.o
    0x000182a4   0x00000028   Code   RO         3634    .text               c_p.l(noretval__2sprintf.o)
    0x000182cc   0x0000004e   Code   RO         3638    .text               c_p.l(_printf_pad.o)
    0x0001831a   0x00000002   PAD
    0x0001831c   0x00000058   Code   RO         3643    .text               c_p.l(_printf_hex_int.o)
    0x00018374   0x00000138   Code   RO         3673    .text               c_p.l(__printf_flags_wp.o)
    0x000184ac   0x0000005a   Code   RO         3683    .text               c_p.l(memcmp.o)
    0x00018506   0x00000082   Code   RO         3688    .text               c_p.l(rt_memcpy.o)
    0x00018588   0x00000040   Code   RO         3691    .text               c_p.l(rt_memclr.o)
    0x000185c8   0x0000006c   Code   RO         3693    .text               c_p.l(strncpy.o)
    0x00018634   0x0000015a   Code   RO         3695    .text               c_p.l(aeabi_sdiv.o)
    0x0001878e   0x00000006   Code   RO         3699    .text               c_p.l(heapauxi.o)
    0x00018794   0x0000007c   Code   RO         3703    .text               fz_ps.l(d2f.o)
    0x00018810   0x00000358   Code   RO         3705    .text               fz_ps.l(daddsub.o)
    0x00018b68   0x00000448   Code   RO         3707    .text               fz_ps.l(ddiv.o)
    0x00018fb0   0x00000048   Code   RO         3710    .text               fz_ps.l(dfixui.o)
    0x00018ff8   0x00000058   Code   RO         3712    .text               fz_ps.l(dflti.o)
    0x00019050   0x00000248   Code   RO         3716    .text               fz_ps.l(dmul.o)
    0x00019298   0x00000054   Code   RO         3720    .text               fz_ps.l(f2d.o)
    0x000192ec   0x00000160   Code   RO         3728    .text               fz_ps.l(fdiv.o)
    0x0001944c   0x0000005e   Code   RO         3735    .text               fz_ps.l(fflti.o)
    0x000194aa   0x000000b0   Code   RO         3770    .text               c_p.l(_printf_intcommon.o)
    0x0001955a   0x00000002   PAD
    0x0001955c   0x00000030   Code   RO         3772    .text               c_p.l(_printf_char_common.o)
    0x0001958c   0x0000000a   Code   RO         3774    .text               c_p.l(_sputc.o)
    0x00019596   0x00000002   PAD
    0x00019598   0x00000008   Code   RO         3839    .text               c_p.l(libspace.o)
    0x000195a0   0x0000003e   Code   RO         3842    .text               c_p.l(sys_stackheap_outer.o)
    0x000195de   0x00000010   Code   RO         3845    .text               c_p.l(exit.o)
    0x000195ee   0x00000002   PAD
    0x000195f0   0x0000000c   Code   RO         3913    .text               c_p.l(sys_exit.o)
    0x000195fc   0x00000002   Code   RO         3932    .text               c_p.l(use_no_semi.o)
    0x000195fe   0x00000000   Code   RO         3934    .text               c_p.l(indicate_semi.o)
    0x000195fe   0x00000056   Code   RO         3986    .text               c_p.l(__dczerorl2.o)
    0x00019654   0x000000f4   Code   RO          620    i.ADC_IRQHandler    sensoradc.o
    0x00019748   0x00000088   Code   RO            4    i.DeviceNameFromID  main.o
    0x000197d0   0x000000dc   Code   RO         3152    i.GPIOTE_IRQHandler  app_gpiote.o
    0x000198ac   0x00000010   Code   RO          582    i.I2C_Init          communication.o
    0x000198bc   0x00000034   Code   RO          583    i.I2C_Read          communication.o
    0x000198f0   0x00000032   Code   RO          584    i.I2C_Write         communication.o
    0x00019922   0x00000002   PAD
    0x00019924   0x000000b8   Code   RO         1649    i.MPL3115A2_getAltitude  mpl3115.o
    0x000199dc   0x0000002c   Code   RO         1652    i.MPL3115A2_init    mpl3115.o
    0x00019a08   0x00000056   Code   RO         1653    i.MPL3115A2_read8   mpl3115.o
    0x00019a5e   0x00000068   Code   RO         1654    i.MPL3115A2_readBytes_  mpl3115.o
    0x00019ac6   0x00000076   Code   RO         1655    i.MPL3115A2_write8  mpl3115.o
    0x00019b3c   0x00000018   Code   RO          732    i.MPU9150_readByte  mpu_9150.o
    0x00019b54   0x0000001c   Code   RO          734    i.MPU9150_readBytes  mpu_9150.o
    0x00019b70   0x0000005e   Code   RO          735    i.MPU9150_readBytes_  mpu_9150.o
    0x00019bce   0x00000016   Code   RO          736    i.MPU9150_writeByte  mpu_9150.o
    0x00019be4   0x00000038   Code   RO          737    i.MPU9150_writeByte_  mpu_9150.o
    0x00019c1c   0x00000014   Code   RO         3281    i.NVIC_ClearPendingIRQ  app_timer.o
    0x00019c30   0x00000014   Code   RO         3282    i.NVIC_EnableIRQ    app_timer.o
    0x00019c44   0x00000014   Code   RO         3283    i.NVIC_SetPendingIRQ  app_timer.o
    0x00019c58   0x00000078   Code   RO         2483    i.NVIC_SetPriority  app_uart.o
    0x00019cd0   0x00000078   Code   RO         3153    i.NVIC_SetPriority  app_gpiote.o
    0x00019d48   0x00000078   Code   RO         3284    i.NVIC_SetPriority  app_timer.o
    0x00019dc0   0x00000028   Code   RO         3285    i.RTC1_IRQHandler   app_timer.o
    0x00019de8   0x00000034   Code   RO         2838    i.SPI0_TWI0_IRQHandler  spi_master.o
    0x00019e1c   0x00000038   Code   RO         2839    i.SPI1_TWI1_IRQHandler  spi_master.o
    0x00019e54   0x00000008   Code   RO         3286    i.SWI0_IRQHandler   app_timer.o
    0x00019e5c   0x00000038   Code   RO         3569    i.SWI2_IRQHandler   softdevice_handler.o
    0x00019e94   0x00000038   Code   RO         1802    i.SystemInit        system_nrf51.o
    0x00019ecc   0x00000398   Code   RO         1346    i.TIMER2_IRQHandler  nrf_pwm.o
    0x0001a264   0x000000a8   Code   RO         2484    i.UART0_IRQHandler  app_uart.o
    0x0001a30c   0x0000001c   Code   RO         1269    i.__ARM_common_switch8  inv_mpu.o
    0x0001a328   0x0000000e   Code   RO         3671    i._is_digit         c_p.l(__printf_wp.o)
    0x0001a336   0x00000008   Code   RO         2485    i.action_tx_ready   app_uart.o
    0x0001a33e   0x00000002   PAD
    0x0001a340   0x00000030   Code   RO         2486    i.action_tx_send    app_uart.o
    0x0001a370   0x00000028   Code   RO         2487    i.action_tx_stop    app_uart.o
    0x0001a398   0x00000024   Code   RO         2488    i.action_uart_deactivate  app_uart.o
    0x0001a3bc   0x00000002   Code   RO            5    i.ad7746_on_write_config_callback  main.o
    0x0001a3be   0x00000136   Code   RO         1841    i.adv_data_encode   ble_advdata.o
    0x0001a4f4   0x00000014   Code   RO         1842    i.advdata_check     ble_advdata.o
    0x0001a508   0x000000ac   Code   RO            6    i.advertising_init  main.o
    0x0001a5b4   0x00000024   Code   RO            7    i.advertising_start  main.o
    0x0001a5d8   0x00000020   Code   RO         1708    i.alert_timer_handler  bsp.o
    0x0001a5f8   0x00000020   Code   RO         3063    i.app_button_enable  app_button.o
    0x0001a618   0x00000098   Code   RO         3064    i.app_button_init   app_button.o
    0x0001a6b0   0x00000014   Code   RO            8    i.app_error_handler  main.o
    0x0001a6c4   0x0000001c   Code   RO         2217    i.app_evt_notify    device_manager_peripheral.o
    0x0001a6e0   0x00000090   Code   RO         3154    i.app_gpiote_init   app_gpiote.o
    0x0001a770   0x00000040   Code   RO         3155    i.app_gpiote_pins_state_get  app_gpiote.o
    0x0001a7b0   0x000000fc   Code   RO         3157    i.app_gpiote_user_enable  app_gpiote.o
    0x0001a8ac   0x00000098   Code   RO         3158    i.app_gpiote_user_register  app_gpiote.o
    0x0001a944   0x00000028   Code   RO         2708    i.app_notify        pstorage.o
    0x0001a96c   0x00000074   Code   RO            9    i.app_on_adv_timeout  main.o
    0x0001a9e0   0x00000054   Code   RO           10    i.app_on_connect    main.o
    0x0001aa34   0x00000020   Code   RO           11    i.app_on_disconnect  main.o
    0x0001aa54   0x00000074   Code   RO         3219    i.app_sched_event_get  app_scheduler.o
    0x0001aac8   0x0000001e   Code   RO         3221    i.app_sched_execute  app_scheduler.o
    0x0001aae6   0x00000002   PAD
    0x0001aae8   0x0000005c   Code   RO         3222    i.app_sched_init    app_scheduler.o
    0x0001ab44   0x00000074   Code   RO         3289    i.app_timer_create  app_timer.o
    0x0001abb8   0x000000f0   Code   RO         3290    i.app_timer_init    app_timer.o
    0x0001aca8   0x0000006c   Code   RO         3291    i.app_timer_start   app_timer.o
    0x0001ad14   0x00000044   Code   RO         3292    i.app_timer_stop    app_timer.o
    0x0001ad58   0x0000002c   Code   RO         2491    i.app_uart_get      app_uart.o
    0x0001ad84   0x00000204   Code   RO         2493    i.app_uart_init     app_uart.o
    0x0001af88   0x0000004a   Code   RO         1843    i.appearance_encode  ble_advdata.o
    0x0001afd2   0x00000002   PAD
    0x0001afd4   0x0000005c   Code   RO           12    i.application_timers_start  main.o
    0x0001b030   0x00000024   Code   RO           13    i.assert_nrf_callback  main.o
    0x0001b054   0x00000094   Code   RO          443    i.ble_AD7746_init   ble_ad7746.o
    0x0001b0e8   0x0000003a   Code   RO          444    i.ble_AD7746_on_ble_evt  ble_ad7746.o
    0x0001b122   0x00000002   PAD
    0x0001b124   0x00000080   Code   RO          445    i.ble_AD7746_send_temp_notify  ble_ad7746.o
    0x0001b1a4   0x0000007a   Code   RO         1844    i.ble_advdata_set   ble_advdata.o
    0x0001b21e   0x00000002   PAD
    0x0001b220   0x000001a0   Code   RO         1926    i.ble_advertising_init  ble_advertising.o
    0x0001b3c0   0x00000134   Code   RO         1927    i.ble_advertising_on_ble_evt  ble_advertising.o
    0x0001b4f4   0x00000054   Code   RO         1928    i.ble_advertising_on_sys_evt  ble_advertising.o
    0x0001b548   0x00000010   Code   RO         1930    i.ble_advertising_peer_address_clear  ble_advertising.o
    0x0001b558   0x00000250   Code   RO         1932    i.ble_advertising_start  ble_advertising.o
    0x0001b7a8   0x00000078   Code   RO         2008    i.ble_conn_params_init  ble_conn_params.o
    0x0001b820   0x0000003e   Code   RO         2009    i.ble_conn_params_on_ble_evt  ble_conn_params.o
    0x0001b85e   0x00000002   PAD
    0x0001b860   0x0000003c   Code   RO         2090    i.ble_debug_assert_handler  ble_debug_assert_handler.o
    0x0001b89c   0x0000002c   Code   RO           14    i.ble_evt_dispatch  main.o
    0x0001b8c8   0x00000058   Code   RO         2149    i.ble_nus_string_send  ble_nus.o
    0x0001b920   0x000000a4   Code   RO           15    i.ble_stack_init    main.o
    0x0001b9c4   0x00000050   Code   RO         2218    i.bond_data_load    device_manager_peripheral.o
    0x0001ba14   0x0000004c   Code   RO         1709    i.bsp_button_event_handler  bsp.o
    0x0001ba60   0x00000038   Code   RO         1710    i.bsp_button_is_pressed  bsp.o
    0x0001ba98   0x000000ac   Code   RO         1711    i.bsp_buttons_enable  bsp.o
    0x0001bb44   0x00000018   Code   RO         1713    i.bsp_event_to_button_assign  bsp.o
    0x0001bb5c   0x00000024   Code   RO         1714    i.bsp_indication_set  bsp.o
    0x0001bb80   0x000000bc   Code   RO         1716    i.bsp_init          bsp.o
    0x0001bc3c   0x0000048c   Code   RO         1717    i.bsp_led_indication  bsp.o
    0x0001c0c8   0x0000002c   Code   RO           17    i.button_event_handler  main.o
    0x0001c0f4   0x00000020   Code   RO         3066    i.button_handler_execute  app_button.o
    0x0001c114   0x00000144   Code   RO          446    i.cap_char_add      ble_ad7746.o
    0x0001c258   0x00000002   Code   RO           18    i.capmeasure_timer_handler  main.o
    0x0001c25a   0x00000002   PAD
    0x0001c25c   0x00000168   Code   RO         2709    i.cmd_process       pstorage.o
    0x0001c3c4   0x0000002c   Code   RO         2710    i.cmd_queue_dequeue  pstorage.o
    0x0001c3f0   0x0000003c   Code   RO         2711    i.cmd_queue_element_init  pstorage.o
    0x0001c42c   0x00000098   Code   RO         2712    i.cmd_queue_enqueue  pstorage.o
    0x0001c4c4   0x00000034   Code   RO         2713    i.cmd_queue_init    pstorage.o
    0x0001c4f8   0x00000090   Code   RO         3294    i.compare_reg_update  app_timer.o
    0x0001c588   0x000000f0   Code   RO          447    i.config_char_add   ble_ad7746.o
    0x0001c678   0x0000005c   Code   RO         1845    i.conn_int_check    ble_advdata.o
    0x0001c6d4   0x0000005c   Code   RO         1846    i.conn_int_encode   ble_advdata.o
    0x0001c730   0x00000014   Code   RO           19    i.conn_params_error_handler  main.o
    0x0001c744   0x0000005c   Code   RO           20    i.conn_params_init  main.o
    0x0001c7a0   0x00000094   Code   RO         2011    i.conn_params_negotiation  ble_conn_params.o
    0x0001c834   0x00000048   Code   RO         2219    i.connection_instance_find  device_manager_peripheral.o
    0x0001c87c   0x00000038   Code   RO         2220    i.connection_instance_init  device_manager_peripheral.o
    0x0001c8b4   0x0000001a   Code   RO         1539    i.convert_bin_to_uAh  ltc2943.o
    0x0001c8ce   0x00000028   Code   RO          678    i.crc8_add          ds2401.o
    0x0001c8f6   0x00000002   PAD
    0x0001c8f8   0x0000005c   Code   RO         3295    i.current_int_priority_get  app_timer.o
    0x0001c954   0x000000a0   Code   RO         3067    i.detection_delay_timeout_handler  app_button.o
    0x0001c9f4   0x000000d0   Code   RO         2221    i.device_context_store  device_manager_peripheral.o
    0x0001cac4   0x0000007c   Code   RO         2222    i.device_instance_allocate  device_manager_peripheral.o
    0x0001cb40   0x00000058   Code   RO         2223    i.device_instance_find  device_manager_peripheral.o
    0x0001cb98   0x00000030   Code   RO         2224    i.device_instance_free  device_manager_peripheral.o
    0x0001cbc8   0x00000024   Code   RO           21    i.device_manager_evt_handler  main.o
    0x0001cbec   0x000000e0   Code   RO           22    i.device_manager_init  main.o
    0x0001cccc   0x00000638   Code   RO         2229    i.dm_ble_evt_handler  device_manager_peripheral.o
    0x0001d304   0x0000001c   Code   RO         2235    i.dm_handle_initialize  device_manager_peripheral.o
    0x0001d320   0x00000108   Code   RO         2236    i.dm_init           device_manager_peripheral.o
    0x0001d428   0x000001fc   Code   RO         2239    i.dm_pstorage_cb_handler  device_manager_peripheral.o
    0x0001d624   0x000000bc   Code   RO         2240    i.dm_register       device_manager_peripheral.o
    0x0001d6e0   0x000000a4   Code   RO          679    i.ds2401_initAndRead  ds2401.o
    0x0001d784   0x00000064   Code   RO         3296    i.elapsed_ticks_acquire  app_timer.o
    0x0001d7e8   0x0000006c   Code   RO         3297    i.expired_timers_handler  app_timer.o
    0x0001d854   0x000000c2   Code   RO           23    i.gap_params_init   main.o
    0x0001d916   0x00000006   Code   RO         2247    i.gattc_context_apply  device_manager_peripheral.o
    0x0001d91c   0x00000006   Code   RO         2248    i.gattc_context_load  device_manager_peripheral.o
    0x0001d922   0x00000006   Code   RO         2249    i.gattc_context_store  device_manager_peripheral.o
    0x0001d928   0x000000f4   Code   RO         2250    i.gatts_context_apply  device_manager_peripheral.o
    0x0001da1c   0x00000048   Code   RO         2251    i.gatts_context_load  device_manager_peripheral.o
    0x0001da64   0x000000d8   Code   RO         2252    i.gatts_context_store  device_manager_peripheral.o
    0x0001db3c   0x0000001a   Code   RO         2253    i.gattsc_context_apply  device_manager_peripheral.o
    0x0001db56   0x0000001e   Code   RO         2254    i.gattsc_context_load  device_manager_peripheral.o
    0x0001db74   0x0000001e   Code   RO         2255    i.gattsc_context_store  device_manager_peripheral.o
    0x0001db92   0x00000002   PAD
    0x0001db94   0x00000040   Code   RO         3068    i.gpiote_event_handler  app_button.o
    0x0001dbd4   0x00000064   Code   RO         2495    i.gpiote_uart_event_handler  app_uart.o
    0x0001dc38   0x00000052   Code   RO         1541    i.i2c_transfer      ltc2943.o
    0x0001dc8a   0x00000002   PAD
    0x0001dc8c   0x000000d0   Code   RO         1287    i.initA2035H        a2035h.o
    0x0001dd5c   0x00000094   Code   RO          743    i.initAK8975A       mpu_9150.o
    0x0001ddf0   0x000001ac   Code   RO          744    i.initMPU9150       mpu_9150.o
    0x0001df9c   0x000000bc   Code   RO         3570    i.intern_softdevice_events_execute  softdevice_handler.o
    0x0001e058   0x00000024   Code   RO         2012    i.is_conn_params_ok  ble_conn_params.o
    0x0001e07c   0x00000038   Code   RO         1803    i.is_disabled_in_debug_needed  system_nrf51.o
    0x0001e0b4   0x0000006c   Code   RO         1804    i.is_manual_peripheral_setup_needed  system_nrf51.o
    0x0001e120   0x00000012   Code   RO         2714    i.is_word_aligned   pstorage.o
    0x0001e132   0x00000002   PAD
    0x0001e134   0x00000024   Code   RO         1718    i.leds_timer_handler  bsp.o
    0x0001e158   0x000000c0   Code   RO         3298    i.list_deletions_handler  app_timer.o
    0x0001e218   0x00000130   Code   RO         3299    i.list_insertions_handler  app_timer.o
    0x0001e348   0x00000030   Code   RO         1542    i.ltc294x_get_charge_counter  ltc2943.o
    0x0001e378   0x0000008c   Code   RO         1544    i.ltc294x_get_current  ltc2943.o
    0x0001e404   0x00000048   Code   RO         1545    i.ltc294x_get_temperature  ltc2943.o
    0x0001e44c   0x00000044   Code   RO         1546    i.ltc294x_get_voltage  ltc2943.o
    0x0001e490   0x000000d0   Code   RO         1547    i.ltc294x_init      ltc2943.o
    0x0001e560   0x0000002c   Code   RO         1548    i.ltc294x_read_charge_register  ltc2943.o
    0x0001e58c   0x0000004c   Code   RO         1549    i.ltc294x_read_regs  ltc2943.o
    0x0001e5d8   0x0000008c   Code   RO         1550    i.ltc294x_reset     ltc2943.o
    0x0001e664   0x00000056   Code   RO         1553    i.ltc294x_write_regs  ltc2943.o
    0x0001e6ba   0x00000002   PAD
    0x0001e6bc   0x0000006c   Code   RO           24    i.main              main.o
    0x0001e728   0x0000006a   Code   RO         1847    i.manuf_specific_data_encode  ble_advdata.o
    0x0001e792   0x00000096   Code   RO         1848    i.name_encode       ble_advdata.o
    0x0001e828   0x00000018   Code   RO         3224    i.next_index        app_scheduler.o
    0x0001e840   0x00000006   Code   RO         2256    i.no_service_context_apply  device_manager_peripheral.o
    0x0001e846   0x00000006   Code   RO         2257    i.no_service_context_load  device_manager_peripheral.o
    0x0001e84c   0x00000006   Code   RO         2258    i.no_service_context_store  device_manager_peripheral.o
    0x0001e852   0x00000002   PAD
    0x0001e854   0x0000001c   Code   RO         3039    i.nrf_delay_ms      nrf_delay.o
    0x0001e870   0x00000012   Code   RO         2496    i.nrf_gpio_cfg_output  app_uart.o
    0x0001e882   0x00000002   PAD
    0x0001e884   0x00000010   Code   RO           25    i.nrf_gpio_pin_clear  main.o
    0x0001e894   0x00000010   Code   RO         1288    i.nrf_gpio_pin_clear  a2035h.o
    0x0001e8a4   0x00000010   Code   RO           26    i.nrf_gpio_pin_set  main.o
    0x0001e8b4   0x00000010   Code   RO         1289    i.nrf_gpio_pin_set  a2035h.o
    0x0001e8c4   0x00000010   Code   RO         2842    i.nrf_gpio_pin_set  spi_master.o
    0x0001e8d4   0x00000028   Code   RO         1348    i.nrf_gpio_pin_write  nrf_pwm.o
    0x0001e8fc   0x00000078   Code   RO         1349    i.nrf_gpiote_task_config  nrf_pwm.o
    0x0001e974   0x00000018   Code   RO         1350    i.nrf_gpiote_unconfig  nrf_pwm.o
    0x0001e98c   0x0000009c   Code   RO           28    i.on_adv_evt        main.o
    0x0001ea28   0x00000050   Code   RO           29    i.on_ble_evt        main.o
    0x0001ea78   0x00000034   Code   RO           30    i.on_conn_params_evt  main.o
    0x0001eaac   0x00000018   Code   RO         2013    i.on_conn_params_update  ble_conn_params.o
    0x0001eac4   0x00000006   Code   RO          448    i.on_connect        ble_ad7746.o
    0x0001eaca   0x00000002   PAD
    0x0001eacc   0x0000003c   Code   RO         2014    i.on_connect        ble_conn_params.o
    0x0001eb08   0x00000028   Code   RO         2497    i.on_cts_high       app_uart.o
    0x0001eb30   0x0000003c   Code   RO         2498    i.on_cts_low        app_uart.o
    0x0001eb6c   0x00000008   Code   RO          449    i.on_disconnect     ble_ad7746.o
    0x0001eb74   0x00000044   Code   RO         2015    i.on_disconnect     ble_conn_params.o
    0x0001ebb8   0x0000002c   Code   RO         2499    i.on_tx_ready       app_uart.o
    0x0001ebe4   0x00000008   Code   RO         2500    i.on_uart_close     app_uart.o
    0x0001ebec   0x00000036   Code   RO         2501    i.on_uart_event     app_uart.o
    0x0001ec22   0x00000002   PAD
    0x0001ec24   0x00000014   Code   RO         2502    i.on_uart_put       app_uart.o
    0x0001ec38   0x0000002a   Code   RO          450    i.on_write          ble_ad7746.o
    0x0001ec62   0x00000002   PAD
    0x0001ec64   0x0000005c   Code   RO         2016    i.on_write          ble_conn_params.o
    0x0001ecc0   0x0000001a   Code   RO         1934    i.peer_address_exists  ble_advertising.o
    0x0001ecda   0x00000002   PAD
    0x0001ecdc   0x00000050   Code   RO         2259    i.peer_instance_init  device_manager_peripheral.o
    0x0001ed2c   0x00000068   Code   RO         3159    i.pins_sense_disable  app_gpiote.o
    0x0001ed94   0x0000002c   Code   RO         2715    i.pstorage_access_status_get  pstorage.o
    0x0001edc0   0x00000090   Code   RO         2716    i.pstorage_block_identifier_get  pstorage.o
    0x0001ee50   0x000000b0   Code   RO         2717    i.pstorage_clear    pstorage.o
    0x0001ef00   0x00000028   Code   RO         2718    i.pstorage_flash_page_end  pstorage.o
    0x0001ef28   0x0000000a   Code   RO         2719    i.pstorage_flash_page_size  pstorage.o
    0x0001ef32   0x00000002   PAD
    0x0001ef34   0x0000009c   Code   RO         2720    i.pstorage_init     pstorage.o
    0x0001efd0   0x000000ec   Code   RO         2721    i.pstorage_load     pstorage.o
    0x0001f0bc   0x00000144   Code   RO         2722    i.pstorage_register  pstorage.o
    0x0001f200   0x000000d4   Code   RO         2723    i.pstorage_store    pstorage.o
    0x0001f2d4   0x00000204   Code   RO         2724    i.pstorage_sys_event_handler  pstorage.o
    0x0001f4d8   0x000000d4   Code   RO         2725    i.pstorage_update   pstorage.o
    0x0001f5ac   0x00000038   Code   RO         1290    i.pullupdown_gpio_cfg_output  a2035h.o
    0x0001f5e4   0x00000180   Code   RO          749    i.readMagData       mpu_9150.o
    0x0001f764   0x0000007c   Code   RO          750    i.readMagFloatUT    mpu_9150.o
    0x0001f7e0   0x00000068   Code   RO          680    i.read_byte         ds2401.o
    0x0001f848   0x00000054   Code   RO          681    i.reset             ds2401.o
    0x0001f89c   0x00000018   Code   RO          753    i.resetMPU9150      mpu_9150.o
    0x0001f8b4   0x000000d0   Code   RO           32    i.resumeSendData    main.o
    0x0001f984   0x0000000c   Code   RO         3300    i.rtc1_counter_get  app_timer.o
    0x0001f990   0x00000018   Code   RO         3301    i.rtc1_init         app_timer.o
    0x0001f9a8   0x0000003c   Code   RO         3302    i.rtc1_start        app_timer.o
    0x0001f9e4   0x00000058   Code   RO         3303    i.rtc1_stop         app_timer.o
    0x0001fa3c   0x00000044   Code   RO         1357    i.safe_margins_present  nrf_pwm.o
    0x0001fa80   0x00000030   Code   RO           33    i.scheduler_init    main.o
    0x0001fab0   0x00000080   Code   RO         3160    i.sense_level_toggle  app_gpiote.o
    0x0001fb30   0x0000008c   Code   RO         1849    i.service_data_encode  ble_advdata.o
    0x0001fbbc   0x00000038   Code   RO           34    i.services_init     main.o
    0x0001fbf4   0x00000012   Code   RO         3571    i.softdevice_assertion_handler  softdevice_handler.o
    0x0001fc06   0x00000002   PAD
    0x0001fc08   0x00000018   Code   RO         3572    i.softdevice_ble_evt_handler_set  softdevice_handler.o
    0x0001fc20   0x00000068   Code   RO         3573    i.softdevice_handler_init  softdevice_handler.o
    0x0001fc88   0x00000018   Code   RO         3575    i.softdevice_sys_evt_handler_set  softdevice_handler.o
    0x0001fca0   0x000000c4   Code   RO           35    i.someother_module_init  main.o
    0x0001fd64   0x00000052   Code   RO         2844    i.spi_master_buffer_release  spi_master.o
    0x0001fdb6   0x00000002   PAD
    0x0001fdb8   0x00000018   Code   RO         2846    i.spi_master_get_instance  spi_master.o
    0x0001fdd0   0x000000e4   Code   RO         2851    i.spi_master_send_recv_irq  spi_master.o
    0x0001feb4   0x0000004c   Code   RO         2852    i.spi_master_signal_evt  spi_master.o
    0x0001ff00   0x00000010   Code   RO         1850    i.srdata_check      ble_advdata.o
    0x0001ff10   0x00000008   Code   RO         2260    i.storage_operation_dummy_handler  device_manager_peripheral.o
    0x0001ff18   0x000001b4   Code   RO         2726    i.swap_state_process  pstorage.o
    0x000200cc   0x00000012   Code   RO           36    i.sys_evt_dispatch  main.o
    0x000200de   0x00000002   PAD
    0x000200e0   0x00000144   Code   RO          451    i.temp_char_add     ble_ad7746.o
    0x00020224   0x00000048   Code   RO           37    i.tempmeasure_timer_handler  main.o
    0x0002026c   0x0000000a   Code   RO         3304    i.ticks_diff_get    app_timer.o
    0x00020276   0x00000002   PAD
    0x00020278   0x00000040   Code   RO         3305    i.timeout_handler_exec  app_timer.o
    0x000202b8   0x00000058   Code   RO         3306    i.timer_list_handler  app_timer.o
    0x00020310   0x0000000a   Code   RO         3307    i.timer_list_handler_sched  app_timer.o
    0x0002031a   0x00000002   PAD
    0x0002031c   0x000000dc   Code   RO         3308    i.timer_list_insert  app_timer.o
    0x000203f8   0x000000cc   Code   RO         3309    i.timer_list_remove  app_timer.o
    0x000204c4   0x00000054   Code   RO         3310    i.timer_start_op_schedule  app_timer.o
    0x00020518   0x00000040   Code   RO         3312    i.timer_stop_op_schedule  app_timer.o
    0x00020558   0x0000009c   Code   RO         3313    i.timer_timeouts_check  app_timer.o
    0x000205f4   0x0000000a   Code   RO         3314    i.timer_timeouts_check_sched  app_timer.o
    0x000205fe   0x00000002   PAD
    0x00020600   0x0000008c   Code   RO           38    i.timers_init       main.o
    0x0002068c   0x000000e4   Code   RO         2954    i.twi_master_clear_bus  twi_hw_master.o
    0x00020770   0x0000006c   Code   RO         2955    i.twi_master_init   twi_hw_master.o
    0x000207dc   0x00000110   Code   RO         2956    i.twi_master_read   twi_hw_master.o
    0x000208ec   0x0000004c   Code   RO         2957    i.twi_master_transfer  twi_hw_master.o
    0x00020938   0x000000bc   Code   RO         2958    i.twi_master_write  twi_hw_master.o
    0x000209f4   0x00000030   Code   RO         1851    i.tx_power_level_encode  ble_advdata.o
    0x00020a24   0x00000100   Code   RO         1291    i.uart_event_handle_withBle  a2035h.o
    0x00020b24   0x00000040   Code   RO         2503    i.uart_no_flow_control_init  app_uart.o
    0x00020b64   0x00000040   Code   RO         2504    i.uart_standard_flow_control_init  app_uart.o
    0x00020ba4   0x00000012   Code   RO         1852    i.uint16_encode     ble_advdata.o
    0x00020bb6   0x00000002   PAD
    0x00020bb8   0x00000014   Code   RO         2261    i.update_status_bit_reset  device_manager_peripheral.o
    0x00020bcc   0x0000009c   Code   RO         2017    i.update_timeout_handler  ble_conn_params.o
    0x00020c68   0x00000022   Code   RO         3315    i.user_id_get       app_timer.o
    0x00020c8a   0x0000002c   Code   RO         3316    i.user_op_alloc     app_timer.o
    0x00020cb6   0x00000004   Code   RO         3317    i.user_op_enque     app_timer.o
    0x00020cba   0x00000040   Code   RO         1853    i.uuid_list_encode  ble_advdata.o
    0x00020cfa   0x000000c4   Code   RO         1854    i.uuid_list_sized_encode  ble_advdata.o
    0x00020dbe   0x00000002   PAD
    0x00020dc0   0x00000028   Code   RO          754    i.wait              mpu_9150.o
    0x00020de8   0x00000016   Code   RO         1935    i.whitelist_has_entries  ble_advertising.o
    0x00020dfe   0x00000002   PAD
    0x00020e00   0x00000094   Code   RO          682    i.write_byte        ds2401.o
    0x00020e94   0x0000008c   Code   RO         3722    x$fpl$fadd          fz_ps.l(faddsub.o)
    0x00020f20   0x000000b0   Code   RO         3739    x$fpl$fmul          fz_ps.l(fmul.o)
    0x00020fd0   0x000000d0   Code   RO         3724    x$fpl$fsub          fz_ps.l(faddsub.o)
    0x000210a0   0x00000000   Code   RO         3785    x$fpl$usenofp       fz_ps.l(usenofp.o)
    0x000210a0   0x00000004   Data   RO           40    .constdata          main.o
    0x000210a4   0x0000000c   Data   RO         1293    .constdata          a2035h.o
    0x000210b0   0x00000018   Data   RO         1719    .constdata          bsp.o
    0x000210c8   0x00000034   Data   RO         2263    .constdata          device_manager_peripheral.o
    0x000210fc   0x00000004   Data   RO         2854    .constdata          spi_master.o
    0x00021100   0x00000028   Data   RO         3644    .constdata          c_p.l(_printf_hex_int.o)
    0x00021128   0x00000011   Data   RO         3674    .constdata          c_p.l(__printf_flags_wp.o)
    0x00021139   0x00000080   Data   RO         3708    .constdata          fz_ps.l(ddiv.o)
    0x000211b9   0x00000040   Data   RO         3729    .constdata          fz_ps.l(fdiv.o)
    0x000211f9   0x00000003   PAD
    0x000211fc   0x00000020   Data   RO         3984    Region$$Table       anon$$obj.o


    Execution Region RW_IRAM1 (Base: 0x20002000, Size: 0x00001ed0, Max: 0x00002000, ABSOLUTE, COMPRESSED[0x00000034])

    Base Addr    Size         Type   Attr      Idx    E Section Name        Object

    0x20002000   0x00000024   Data   RW           41    .data               main.o
    0x20002024   0x00000010   Data   RW          453    .data               ble_ad7746.o
    0x20002034   0x00000010   Data   RW          627    .data               sensoradc.o
    0x20002044   0x00000008   Data   RW          683    .data               ds2401.o
    0x2000204c   0x00000084   Data   RW          756    .data               mpu_9150.o
    0x200020d0   0x00000002   Data   RW         1294    .data               a2035h.o
    0x200020d2   0x00000002   PAD
    0x200020d4   0x00000024   Data   RW         1361    .data               nrf_pwm.o
    0x200020f8   0x00000005   Data   RW         1555    .data               ltc2943.o
    0x200020fd   0x00000003   PAD
    0x20002100   0x0000001a   Data   RW         1720    .data               bsp.o
    0x2000211a   0x00000002   PAD
    0x2000211c   0x00000004   Data   RW         1805    .data               system_nrf51.o
    0x20002120   0x00000022   Data   RW         1937    .data               ble_advertising.o
    0x20002142   0x00000002   PAD
    0x20002144   0x00000019   Data   RW         2019    .data               ble_conn_params.o
    0x2000215d   0x00000003   PAD
    0x20002160   0x00000008   Data   RW         2092    .data               ble_debug_assert_handler.o
    0x20002168   0x00000014   Data   RW         2264    .data               device_manager_peripheral.o
    0x2000217c   0x00000011   Data   RW         2505    .data               app_uart.o
    0x2000218d   0x00000003   PAD
    0x20002190   0x0000000c   Data   RW         2728    .data               pstorage.o
    0x2000219c   0x0000001c   Data   RW         3069    .data               app_button.o
    0x200021b8   0x0000000c   Data   RW         3161    .data               app_gpiote.o
    0x200021c4   0x0000000e   Data   RW         3225    .data               app_scheduler.o
    0x200021d2   0x00000002   PAD
    0x200021d4   0x0000002a   Data   RW         3318    .data               app_timer.o
    0x200021fe   0x00000002   PAD
    0x20002200   0x00000018   Data   RW         3576    .data               softdevice_handler.o
    0x20002218   0x00000654   Zero   RW           39    .bss                main.o
    0x2000286c   0x00000028   Zero   RW          625    .bss                sensoradc.o
    0x20002894   0x00000054   Zero   RW          755    .bss                mpu_9150.o
    0x200028e8   0x00000130   Zero   RW         1292    .bss                a2035h.o
    0x20002a18   0x00000030   Zero   RW         1359    .bss                nrf_pwm.o
    0x20002a48   0x0000003c   Zero   RW         1554    .bss                ltc2943.o
    0x20002a84   0x000000f7   Zero   RW         1936    .bss                ble_advertising.o
    0x20002b7b   0x00000001   PAD
    0x20002b7c   0x0000001c   Zero   RW         2018    .bss                ble_conn_params.o
    0x20002b98   0x00000080   Zero   RW         2091    .bss                ble_debug_assert_handler.o
    0x20002c18   0x00000127   Zero   RW         2262    .bss                device_manager_peripheral.o
    0x20002d3f   0x00000001   PAD
    0x20002d40   0x000000dc   Zero   RW         2727    .bss                pstorage.o
    0x20002e1c   0x00000050   Zero   RW         2853    .bss                spi_master.o
    0x20002e6c   0x00000060   Zero   RW         3840    .bss                c_p.l(libspace.o)
    0x20002ecc   0x00000004   PAD
    0x20002ed0   0x00000800   Zero   RW         1793    HEAP                arm_startup_nrf51.o
    0x200036d0   0x00000800   Zero   RW         1792    STACK               arm_startup_nrf51.o


==============================================================================

Image component sizes


      Code (inc. data)   RO Data    RW Data    ZI Data      Debug   Object Name

       582         56         12          2        304       7325   a2035h.o
         0          0          0          0          0       2104   ad7746.o
       440         66          0         28          0       8234   app_button.o
      1184        116          0         12          0       7582   app_gpiote.o
       262         50          0         14          0       6685   app_scheduler.o
      2906        320          0         42          0      31287   app_timer.o
      1452        206          0         17          0      21963   app_uart.o
        84         36        192          0       4096        668   arm_startup_nrf51.o
      1278         30          0         16          0      21277   ble_ad7746.o
      1448          4          0          0          0      14262   ble_advdata.o
      1464        158          0         34        247      10341   ble_advertising.o
       766        126          0         25         28      14564   ble_conn_params.o
        60         14          0          8        128       1447   ble_debug_assert_handler.o
        88          4          0          0          0       1730   ble_nus.o
      1784        150         24         26          0       9522   bsp.o
       118          0          0          0          0       4054   communication.o
      4046        288         52         20        295      27161   device_manager_peripheral.o
       570         26          0          8          0       4505   ds2401.o
        28          0          0          0          0         76   inv_mpu.o
       990         86          0          5         60      13479   ltc2943.o
      2712        226          4         36       1620     109958   main.o
       536          6          0          0          0       3749   mpl3115.o
      1402         76          0        132         84       9332   mpu_9150.o
        58          4          0          0          0       1563   nrf_delay.o
      1172         98          0         36         48       7868   nrf_pwm.o
      3232        230          0         12        220      20442   pstorage.o
       244         36          0         16         40       4588   sensoradc.o
       414         58          0         24          0       6744   softdevice_handler.o
       534         34          4          0         80       9870   spi_master.o
       220         26          0          4          0       1795   system_nrf51.o
       902         82          0          0          0       5000   twi_hw_master.o

    ----------------------------------------------------------------------
     31046       2612        320        536       7252     389175   Object Totals
         0          0         32          0          0          0   (incl. Generated)
        70          0          0         19          2          0   (incl. Padding)

    ----------------------------------------------------------------------

      Code (inc. data)   RO Data    RW Data    ZI Data      Debug   Library Member Name

        86          0          0          0          0          0   __dczerorl2.o
         8          0          0          0          0         68   __main.o
       312          6         17          0          0         76   __printf_flags_wp.o
        14          0          0          0          0         60   __printf_wp.o
         0          0          0          0          0          0   __rtentry.o
        12          0          0          0          0          0   __rtentry2.o
         6          0          0          0          0          0   __rtentry4.o
        60          8          0          0          0          0   __scatter.o
        28          0          0          0          0          0   __scatter_zi.o
        48          6          0          0          0         88   _printf_char_common.o
        88          4         40          0          0         72   _printf_hex_int.o
       176          0          0          0          0         84   _printf_intcommon.o
        78          0          0          0          0        100   _printf_pad.o
         2          0          0          0          0          0   _printf_percent.o
         4          0          0          0          0          0   _printf_percent_end.o
        10          0          0          0          0          0   _printf_x.o
        10          0          0          0          0         60   _sputc.o
       346          0          0          0          0         92   aeabi_sdiv.o
        16          0          0          0          0         68   exit.o
         6          0          0          0          0        136   heapauxi.o
         0          0          0          0          0          0   indicate_semi.o
         2          0          0          0          0          0   libinit.o
         2          0          0          0          0          0   libinit2.o
         2          0          0          0          0          0   libshutdown.o
         2          0          0          0          0          0   libshutdown2.o
         8          4          0          0         96         68   libspace.o
        90          0          0          0          0         68   memcmp.o
        40          4          0          0          0         84   noretval__2sprintf.o
        64          0          0          0          0        108   rt_memclr.o
       186          0          0          0          0        144   rt_memcpy.o
         2          0          0          0          0          0   rtexit.o
        10          0          0          0          0          0   rtexit2.o
       108          4          0          0          0         76   strncpy.o
        12          4          0          0          0         60   sys_exit.o
        62          0          0          0          0         80   sys_stackheap_outer.o
         2          0          0          0          0         68   use_no_semi.o
       124          4          0          0          0         72   d2f.o
       856         20          0          0          0        208   daddsub.o
      1096         26        128          0          0        112   ddiv.o
        72          4          0          0          0         68   dfixui.o
        88          0          0          0          0         92   dflti.o
       584         26          0          0          0         84   dmul.o
        84          4          0          0          0         60   f2d.o
       348          8          0          0          0        160   faddsub.o
       352         10         64          0          0         92   fdiv.o
        94          0          0          0          0         92   fflti.o
       176          4          0          0          0         80   fmul.o
         0          0          0          0          0          0   usenofp.o

    ----------------------------------------------------------------------
      5786        146        252          0        100       2780   Library Totals
        10          0          3          0          4          0   (incl. Padding)

    ----------------------------------------------------------------------

      Code (inc. data)   RO Data    RW Data    ZI Data      Debug   Library Name

      1902         40         57          0         96       1660   c_p.l
      3874        106        192          0          0       1120   fz_ps.l

    ----------------------------------------------------------------------
      5786        146        252          0        100       2780   Library Totals

    ----------------------------------------------------------------------

==============================================================================


      Code (inc. data)   RO Data    RW Data    ZI Data      Debug   

     36832       2758        572        536       7352     378755   Grand Totals
     36832       2758        572         52       7352     378755   ELF Image Totals (compressed)
     36832       2758        572         52          0          0   ROM Totals

==============================================================================

    Total RO  Size (Code + RO Data)                37404 (  36.53kB)
    Total RW  Size (RW Data + ZI Data)              7888 (   7.70kB)
    Total ROM Size (Code + RO Data + RW Data)      37456 (  36.58kB)

==============================================================================

